Archive member included to satisfy reference by file (symbol)

/usr/local/depot/cuda-10.0/bin/..//lib64/libcudart_static.a(libcudart_static.a.o)
                              aes.o (cudaLaunchKernel)
/usr/lib64/libc_nonshared.a(elf-init.oS)
                              /usr/lib/gcc/x86_64-redhat-linux/4.8.5/../../../../lib64/crt1.o (__libc_csu_init)
/usr/lib64/libc_nonshared.a(atexit.oS)
                              aes.o (atexit)
/usr/lib64/libc_nonshared.a(stat.oS)
                              test.o (stat)

Discarded input sections

 .note.GNU-stack
                0x0000000000000000        0x0 /usr/lib/gcc/x86_64-redhat-linux/4.8.5/../../../../lib64/crt1.o
 .note.GNU-stack
                0x0000000000000000        0x0 /usr/lib/gcc/x86_64-redhat-linux/4.8.5/../../../../lib64/crti.o
 .note.GNU-stack
                0x0000000000000000        0x0 /usr/lib/gcc/x86_64-redhat-linux/4.8.5/crtbegin.o
 .note.GNU-stack
                0x0000000000000000        0x0 /tmp/tmpxft_00004cf2_00000000-5_test_dlink.o
 .group         0x0000000000000000        0x8 aes.o
 .note.GNU-stack
                0x0000000000000000        0x0 aes.o
 .group         0x0000000000000000        0x8 test.o
 .group         0x0000000000000000        0x8 test.o
 .text._ZN4dim3C2Ejjj
                0x0000000000000000       0x30 test.o
 .note.GNU-stack
                0x0000000000000000        0x0 test.o
 _ZN6cudart3setIPNS_12globalModuleEE8get_sizeEjPm
                0x0000000000000000        0x8 /usr/local/depot/cuda-10.0/bin/..//lib64/libcudart_static.a(libcudart_static.a.o)
 _ZZN6cudart3setIPNS_12globalModuleEE8get_sizeEjPmE5SIZES
                0x0000000000000000        0x8 /usr/local/depot/cuda-10.0/bin/..//lib64/libcudart_static.a(libcudart_static.a.o)
 _ZTVN6cudart11threadStateE
                0x0000000000000000        0x8 /usr/local/depot/cuda-10.0/bin/..//lib64/libcudart_static.a(libcudart_static.a.o)
 _ZN6cudart3setIPKvE8get_sizeEjPm
                0x0000000000000000        0x8 /usr/local/depot/cuda-10.0/bin/..//lib64/libcudart_static.a(libcudart_static.a.o)
 _ZN6cudart3setIPK16textureReferenceE8get_sizeEjPm
                0x0000000000000000        0x8 /usr/local/depot/cuda-10.0/bin/..//lib64/libcudart_static.a(libcudart_static.a.o)
 _ZN6cudart3setIPK16surfaceReferenceE8get_sizeEjPm
                0x0000000000000000        0x8 /usr/local/depot/cuda-10.0/bin/..//lib64/libcudart_static.a(libcudart_static.a.o)
 _ZN6cudart3setIPNS_6moduleEE8get_sizeEjPm
                0x0000000000000000        0x8 /usr/local/depot/cuda-10.0/bin/..//lib64/libcudart_static.a(libcudart_static.a.o)
 _ZN6cudart3setINS_3mapIPNS_12globalModuleEPNS_6moduleEE5entryEE8get_sizeEjPm
                0x0000000000000000        0x8 /usr/local/depot/cuda-10.0/bin/..//lib64/libcudart_static.a(libcudart_static.a.o)
 _ZN6cudart3setINS_3mapIPKvPNS_17cudaEntryFunctionEE5entryEE8get_sizeEjPm
                0x0000000000000000        0x8 /usr/local/depot/cuda-10.0/bin/..//lib64/libcudart_static.a(libcudart_static.a.o)
 _ZN6cudart3setINS_3mapIPKvPNS_12cudaVariableEE5entryEE8get_sizeEjPm
                0x0000000000000000        0x8 /usr/local/depot/cuda-10.0/bin/..//lib64/libcudart_static.a(libcudart_static.a.o)
 _ZN6cudart3setINS_3mapIPK16textureReferencePNS_11cudaTextureEE5entryEE8get_sizeEjPm
                0x0000000000000000        0x8 /usr/local/depot/cuda-10.0/bin/..//lib64/libcudart_static.a(libcudart_static.a.o)
 _ZN6cudart3setINS_3mapIPK16surfaceReferencePNS_11cudaSurfaceEE5entryEE8get_sizeEjPm
                0x0000000000000000        0x8 /usr/local/depot/cuda-10.0/bin/..//lib64/libcudart_static.a(libcudart_static.a.o)
 _ZZN6cudart3setIPNS_6moduleEE8get_sizeEjPmE5SIZES
                0x0000000000000000        0x8 /usr/local/depot/cuda-10.0/bin/..//lib64/libcudart_static.a(libcudart_static.a.o)
 _ZZN6cudart3setINS_3mapIPNS_12globalModuleEPNS_6moduleEE5entryEE8get_sizeEjPmE5SIZES
                0x0000000000000000        0x8 /usr/local/depot/cuda-10.0/bin/..//lib64/libcudart_static.a(libcudart_static.a.o)
 _ZZN6cudart3setINS_3mapIPK16surfaceReferencePNS_11cudaSurfaceEE5entryEE8get_sizeEjPmE5SIZES
                0x0000000000000000        0x8 /usr/local/depot/cuda-10.0/bin/..//lib64/libcudart_static.a(libcudart_static.a.o)
 _ZZN6cudart3setINS_3mapIPK16textureReferencePNS_11cudaTextureEE5entryEE8get_sizeEjPmE5SIZES
                0x0000000000000000        0x8 /usr/local/depot/cuda-10.0/bin/..//lib64/libcudart_static.a(libcudart_static.a.o)
 _ZZN6cudart3setINS_3mapIPKvPNS_12cudaVariableEE5entryEE8get_sizeEjPmE5SIZES
                0x0000000000000000        0x8 /usr/local/depot/cuda-10.0/bin/..//lib64/libcudart_static.a(libcudart_static.a.o)
 _ZZN6cudart3setINS_3mapIPKvPNS_17cudaEntryFunctionEE5entryEE8get_sizeEjPmE5SIZES
                0x0000000000000000        0x8 /usr/local/depot/cuda-10.0/bin/..//lib64/libcudart_static.a(libcudart_static.a.o)
 _ZZN6cudart3setIPK16surfaceReferenceE8get_sizeEjPmE5SIZES
                0x0000000000000000        0x8 /usr/local/depot/cuda-10.0/bin/..//lib64/libcudart_static.a(libcudart_static.a.o)
 _ZZN6cudart3setIPK16textureReferenceE8get_sizeEjPmE5SIZES
                0x0000000000000000        0x8 /usr/local/depot/cuda-10.0/bin/..//lib64/libcudart_static.a(libcudart_static.a.o)
 _ZZN6cudart3setIPKvE8get_sizeEjPmE5SIZES
                0x0000000000000000        0x8 /usr/local/depot/cuda-10.0/bin/..//lib64/libcudart_static.a(libcudart_static.a.o)
 _ZN6cudart3setIPNS_12contextStateEE8get_sizeEjPm
                0x0000000000000000        0x8 /usr/local/depot/cuda-10.0/bin/..//lib64/libcudart_static.a(libcudart_static.a.o)
 _ZZN6cudart3setIPNS_12contextStateEE8get_sizeEjPmE5SIZES
                0x0000000000000000        0x8 /usr/local/depot/cuda-10.0/bin/..//lib64/libcudart_static.a(libcudart_static.a.o)
 .note.GNU-stack
                0x0000000000000000        0x0 /usr/local/depot/cuda-10.0/bin/..//lib64/libcudart_static.a(libcudart_static.a.o)
 .note.GNU-stack
                0x0000000000000000        0x0 /usr/lib64/libc_nonshared.a(elf-init.oS)
 .note.GNU-stack
                0x0000000000000000        0x0 /usr/lib64/libc_nonshared.a(atexit.oS)
 .note.GNU-stack
                0x0000000000000000        0x0 /usr/lib64/libc_nonshared.a(stat.oS)
 .note.GNU-stack
                0x0000000000000000        0x0 /usr/lib/gcc/x86_64-redhat-linux/4.8.5/crtend.o
 .note.GNU-stack
                0x0000000000000000        0x0 /usr/lib/gcc/x86_64-redhat-linux/4.8.5/../../../../lib64/crtn.o

Memory Configuration

Name             Origin             Length             Attributes
*default*        0x0000000000000000 0xffffffffffffffff

Linker script and memory map

LOAD /usr/lib/gcc/x86_64-redhat-linux/4.8.5/../../../../lib64/crt1.o
LOAD /usr/lib/gcc/x86_64-redhat-linux/4.8.5/../../../../lib64/crti.o
LOAD /usr/lib/gcc/x86_64-redhat-linux/4.8.5/crtbegin.o
START GROUP
LOAD /tmp/tmpxft_00004cf2_00000000-5_test_dlink.o
LOAD aes.o
LOAD test.o
LOAD /usr/local/depot/cuda-10.0/bin/..//lib64/libcudadevrt.a
LOAD /usr/local/depot/cuda-10.0/bin/..//lib64/libcudart_static.a
LOAD /usr/lib/gcc/x86_64-redhat-linux/4.8.5/../../../../lib64/librt.so
LOAD /usr/lib/gcc/x86_64-redhat-linux/4.8.5/../../../../lib64/libpthread.so
START GROUP
LOAD /lib64/libpthread.so.0
LOAD /usr/lib64/libpthread_nonshared.a
END GROUP
LOAD /usr/lib/gcc/x86_64-redhat-linux/4.8.5/../../../../lib64/libdl.so
END GROUP
LOAD /usr/lib/gcc/x86_64-redhat-linux/4.8.5/libstdc++.so
LOAD /usr/lib/gcc/x86_64-redhat-linux/4.8.5/../../../../lib64/libm.so
LOAD /usr/lib/gcc/x86_64-redhat-linux/4.8.5/libgcc_s.so
LOAD /usr/lib/gcc/x86_64-redhat-linux/4.8.5/libgcc.a
LOAD /usr/lib/gcc/x86_64-redhat-linux/4.8.5/../../../../lib64/libc.so
START GROUP
LOAD /lib64/libc.so.6
LOAD /usr/lib64/libc_nonshared.a
LOAD /lib64/ld-linux-x86-64.so.2
END GROUP
LOAD /usr/lib/gcc/x86_64-redhat-linux/4.8.5/libgcc_s.so
LOAD /usr/lib/gcc/x86_64-redhat-linux/4.8.5/libgcc.a
LOAD /usr/lib/gcc/x86_64-redhat-linux/4.8.5/crtend.o
LOAD /usr/lib/gcc/x86_64-redhat-linux/4.8.5/../../../../lib64/crtn.o
                [!provide]                        PROVIDE (__executable_start, 0x400000)
                0x0000000000400238                . = (0x400000 + SIZEOF_HEADERS)

.interp         0x0000000000400238       0x1c
 *(.interp)
 .interp        0x0000000000400238       0x1c /usr/lib/gcc/x86_64-redhat-linux/4.8.5/../../../../lib64/crt1.o

.note.ABI-tag   0x0000000000400254       0x20
 .note.ABI-tag  0x0000000000400254       0x20 /usr/lib/gcc/x86_64-redhat-linux/4.8.5/../../../../lib64/crt1.o

.note.gnu.build-id
                0x0000000000400274       0x24
 *(.note.gnu.build-id)
 .note.gnu.build-id
                0x0000000000400274       0x24 /usr/lib/gcc/x86_64-redhat-linux/4.8.5/../../../../lib64/crt1.o

.hash
 *(.hash)

.gnu.hash       0x0000000000400298       0x1c
 *(.gnu.hash)
 .gnu.hash      0x0000000000400298       0x1c /usr/lib/gcc/x86_64-redhat-linux/4.8.5/../../../../lib64/crt1.o

.dynsym         0x00000000004002b8      0xe58
 *(.dynsym)
 .dynsym        0x00000000004002b8      0xe58 /usr/lib/gcc/x86_64-redhat-linux/4.8.5/../../../../lib64/crt1.o

.dynstr         0x0000000000401110      0x70e
 *(.dynstr)
 .dynstr        0x0000000000401110      0x70e /usr/lib/gcc/x86_64-redhat-linux/4.8.5/../../../../lib64/crt1.o

.gnu.version    0x000000000040181e      0x132
 *(.gnu.version)
 .gnu.version   0x000000000040181e      0x132 /usr/lib/gcc/x86_64-redhat-linux/4.8.5/../../../../lib64/crt1.o

.gnu.version_d  0x0000000000401950        0x0
 *(.gnu.version_d)
 .gnu.version_d
                0x0000000000401950        0x0 /usr/lib/gcc/x86_64-redhat-linux/4.8.5/../../../../lib64/crt1.o

.gnu.version_r  0x0000000000401950       0xf0
 *(.gnu.version_r)
 .gnu.version_r
                0x0000000000401950       0xf0 /usr/lib/gcc/x86_64-redhat-linux/4.8.5/../../../../lib64/crt1.o

.rela.dyn       0x0000000000401a40       0x18
 *(.rela.init)
 *(.rela.text .rela.text.* .rela.gnu.linkonce.t.*)
 .rela.text     0x0000000000401a40        0x0 /usr/lib/gcc/x86_64-redhat-linux/4.8.5/../../../../lib64/crt1.o
 .rela.text._ZSt4sqrtIiEN9__gnu_cxx11__enable_ifIXsrSt12__is_integerIT_E7__valueEdE6__typeES3_
                0x0000000000401a40        0x0 /usr/lib/gcc/x86_64-redhat-linux/4.8.5/../../../../lib64/crt1.o
 *(.rela.fini)
 *(.rela.rodata .rela.rodata.* .rela.gnu.linkonce.r.*)
 *(.rela.data .rela.data.* .rela.gnu.linkonce.d.*)
 *(.rela.tdata .rela.tdata.* .rela.gnu.linkonce.td.*)
 *(.rela.tbss .rela.tbss.* .rela.gnu.linkonce.tb.*)
 *(.rela.ctors)
 *(.rela.dtors)
 *(.rela.got)
 .rela.got      0x0000000000401a40       0x18 /usr/lib/gcc/x86_64-redhat-linux/4.8.5/../../../../lib64/crt1.o
 *(.rela.bss .rela.bss.* .rela.gnu.linkonce.b.*)
 .rela.bss      0x0000000000401a58        0x0 /usr/lib/gcc/x86_64-redhat-linux/4.8.5/../../../../lib64/crt1.o
 *(.rela.ldata .rela.ldata.* .rela.gnu.linkonce.l.*)
 *(.rela.lbss .rela.lbss.* .rela.gnu.linkonce.lb.*)
 *(.rela.lrodata .rela.lrodata.* .rela.gnu.linkonce.lr.*)
 *(.rela.ifunc)

.rela.plt       0x0000000000401a58      0xe28
 *(.rela.plt)
 .rela.plt      0x0000000000401a58      0xe28 /usr/lib/gcc/x86_64-redhat-linux/4.8.5/../../../../lib64/crt1.o
                [!provide]                        PROVIDE (__rela_iplt_start, .)
 *(.rela.iplt)
                [!provide]                        PROVIDE (__rela_iplt_end, .)

.init           0x0000000000402880       0x1a
 *(SORT(.init))
 .init          0x0000000000402880       0x15 /usr/lib/gcc/x86_64-redhat-linux/4.8.5/../../../../lib64/crti.o
                0x0000000000402880                _init
 .init          0x0000000000402895        0x5 /usr/lib/gcc/x86_64-redhat-linux/4.8.5/../../../../lib64/crtn.o

.plt            0x00000000004028a0      0x980
 *(.plt)
 .plt           0x00000000004028a0      0x980 /usr/lib/gcc/x86_64-redhat-linux/4.8.5/../../../../lib64/crt1.o
                0x00000000004028b0                chmod@@GLIBC_2.2.5
                0x00000000004028c0                mprotect@@GLIBC_2.2.5
                0x00000000004028d0                sem_wait@@GLIBC_2.2.5
                0x00000000004028e0                fileno@@GLIBC_2.2.5
                0x00000000004028f0                pthread_getspecific@@GLIBC_2.2.5
                0x0000000000402900                pthread_cond_destroy@@GLIBC_2.3.2
                0x0000000000402910                printf@@GLIBC_2.2.5
                0x0000000000402920                __getdelim@@GLIBC_2.2.5
                0x0000000000402930                pthread_rwlockattr_init@@GLIBC_2.2.5
                0x0000000000402940                memset@@GLIBC_2.2.5
                0x0000000000402950                ftell@@GLIBC_2.2.5
                0x0000000000402960                snprintf@@GLIBC_2.2.5
                0x0000000000402970                close@@GLIBC_2.2.5
                0x0000000000402980                shmdt@@GLIBC_2.2.5
                0x0000000000402990                pthread_setspecific@@GLIBC_2.2.5
                0x00000000004029a0                strncat@@GLIBC_2.2.5
                0x00000000004029b0                sem_destroy@@GLIBC_2.2.5
                0x00000000004029c0                puts@@GLIBC_2.2.5
                0x00000000004029d0                recvmsg@@GLIBC_2.2.5
                0x00000000004029e0                uname@@GLIBC_2.2.5
                0x00000000004029f0                fseek@@GLIBC_2.2.5
                0x0000000000402a00                pthread_cond_signal@@GLIBC_2.3.2
                0x0000000000402a10                exit@@GLIBC_2.2.5
                0x0000000000402a20                pthread_mutexattr_destroy@@GLIBC_2.2.5
                0x0000000000402a30                gettimeofday@@GLIBC_2.2.5
                0x0000000000402a40                sem_trywait@@GLIBC_2.2.5
                0x0000000000402a50                read@@GLIBC_2.2.5
                0x0000000000402a60                strncmp@@GLIBC_2.2.5
                0x0000000000402a70                malloc@@GLIBC_2.2.5
                0x0000000000402a80                fopen@@GLIBC_2.2.5
                0x0000000000402a90                __libc_start_main@@GLIBC_2.2.5
                0x0000000000402aa0                unlink@@GLIBC_2.2.5
                0x0000000000402ab0                rmdir@@GLIBC_2.2.5
                0x0000000000402ac0                sched_yield@@GLIBC_2.2.5
                0x0000000000402ad0                pthread_rwlock_destroy@@GLIBC_2.2.5
                0x0000000000402ae0                pthread_cond_timedwait@@GLIBC_2.3.2
                0x0000000000402af0                shm_open@@GLIBC_2.2.5
                0x0000000000402b00                __cxa_atexit@@GLIBC_2.2.5
                0x0000000000402b10                setsockopt@@GLIBC_2.2.5
                0x0000000000402b20                sysconf@@GLIBC_2.2.5
                0x0000000000402b30                getpid@@GLIBC_2.2.5
                0x0000000000402b40                pthread_mutex_init@@GLIBC_2.2.5
                0x0000000000402b50                fgets@@GLIBC_2.2.5
                0x0000000000402b60                geteuid@@GLIBC_2.2.5
                0x0000000000402b70                __strtoul_internal@@GLIBC_2.2.5
                0x0000000000402b80                free@@GLIBC_2.2.5
                0x0000000000402b90                strlen@@GLIBC_2.2.5
                0x0000000000402ba0                ferror@@GLIBC_2.2.5
                0x0000000000402bb0                pthread_create@@GLIBC_2.2.5
                0x0000000000402bc0                opendir@@GLIBC_2.2.5
                0x0000000000402bd0                __xstat@@GLIBC_2.2.5
                0x0000000000402be0                pthread_cond_init@@GLIBC_2.3.2
                0x0000000000402bf0                listen@@GLIBC_2.2.5
                0x0000000000402c00                realpath@@GLIBC_2.3
                0x0000000000402c10                pthread_key_delete@@GLIBC_2.2.5
                0x0000000000402c20                readdir@@GLIBC_2.2.5
                0x0000000000402c30                dlerror@@GLIBC_2.2.5
                0x0000000000402c40                pthread_mutexattr_setprotocol@@GLIBC_2.4
                0x0000000000402c50                __strtol_internal@@GLIBC_2.2.5
                0x0000000000402c60                fgetc@@GLIBC_2.2.5
                0x0000000000402c70                fdopen@@GLIBC_2.2.5
                0x0000000000402c80                sem_timedwait@@GLIBC_2.2.5
                0x0000000000402c90                syscall@@GLIBC_2.2.5
                0x0000000000402ca0                sscanf@@GLIBC_2.2.5
                0x0000000000402cb0                pipe@@GLIBC_2.2.5
                0x0000000000402cc0                pthread_condattr_setpshared@@GLIBC_2.2.5
                0x0000000000402cd0                dlclose@@GLIBC_2.2.5
                0x0000000000402ce0                pthread_self@@GLIBC_2.2.5
                0x0000000000402cf0                sendmsg@@GLIBC_2.2.5
                0x0000000000402d00                pthread_join@@GLIBC_2.2.5
                0x0000000000402d10                poll@@GLIBC_2.2.5
                0x0000000000402d20                pthread_mutex_trylock@@GLIBC_2.2.5
                0x0000000000402d30                getegid@@GLIBC_2.2.5
                0x0000000000402d40                shm_unlink@@GLIBC_2.2.5
                0x0000000000402d50                kill@@GLIBC_2.2.5
                0x0000000000402d60                usleep@@GLIBC_2.2.5
                0x0000000000402d70                strstr@@GLIBC_2.2.5
                0x0000000000402d80                socketpair@@GLIBC_2.2.5
                0x0000000000402d90                lseek@@GLIBC_2.2.5
                0x0000000000402da0                connect@@GLIBC_2.2.5
                0x0000000000402db0                gethostname@@GLIBC_2.2.5
                0x0000000000402dc0                pthread_rwlockattr_setpshared@@GLIBC_2.2.5
                0x0000000000402dd0                fchmod@@GLIBC_2.2.5
                0x0000000000402de0                pthread_rwlock_init@@GLIBC_2.2.5
                0x0000000000402df0                pthread_mutexattr_setpshared@@GLIBC_2.2.5
                0x0000000000402e00                strchr@@GLIBC_2.2.5
                0x0000000000402e10                socket@@GLIBC_2.2.5
                0x0000000000402e20                vsnprintf@@GLIBC_2.2.5
                0x0000000000402e30                fread@@GLIBC_2.2.5
                0x0000000000402e40                setenv@@GLIBC_2.2.5
                0x0000000000402e50                __fxstat@@GLIBC_2.2.5
                0x0000000000402e60                getenv@@GLIBC_2.2.5
                0x0000000000402e70                pthread_condattr_init@@GLIBC_2.2.5
                0x0000000000402e80                __errno_location@@GLIBC_2.2.5
                0x0000000000402e90                madvise@@GLIBC_2.2.5
                0x0000000000402ea0                strdup@@GLIBC_2.2.5
                0x0000000000402eb0                pthread_rwlock_tryrdlock@@GLIBC_2.2.5
                0x0000000000402ec0                clock@@GLIBC_2.2.5
                0x0000000000402ed0                sem_init@@GLIBC_2.2.5
                0x0000000000402ee0                pthread_mutexattr_settype@@GLIBC_2.2.5
                0x0000000000402ef0                strcmp@@GLIBC_2.2.5
                0x0000000000402f00                getcwd@@GLIBC_2.2.5
                0x0000000000402f10                get_nprocs@@GLIBC_2.2.5
                0x0000000000402f20                sem_post@@GLIBC_2.2.5
                0x0000000000402f30                strcpy@@GLIBC_2.2.5
                0x0000000000402f40                nanosleep@@GLIBC_2.2.5
                0x0000000000402f50                pthread_rwlock_rdlock@@GLIBC_2.2.5
                0x0000000000402f60                getuid@@GLIBC_2.2.5
                0x0000000000402f70                pthread_cond_wait@@GLIBC_2.3.2
                0x0000000000402f80                pthread_detach@@GLIBC_2.2.5
                0x0000000000402f90                pthread_once@@GLIBC_2.2.5
                0x0000000000402fa0                calloc@@GLIBC_2.2.5
                0x0000000000402fb0                munmap@@GLIBC_2.2.5
                0x0000000000402fc0                shmget@@GLIBC_2.2.5
                0x0000000000402fd0                feof@@GLIBC_2.2.5
                0x0000000000402fe0                fclose@@GLIBC_2.2.5
                0x0000000000402ff0                dlopen@@GLIBC_2.2.5
                0x0000000000403000                remove@@GLIBC_2.2.5
                0x0000000000403010                pthread_rwlock_wrlock@@GLIBC_2.2.5
                0x0000000000403020                strncpy@@GLIBC_2.2.5
                0x0000000000403030                localtime_r@@GLIBC_2.2.5
                0x0000000000403040                dlsym@@GLIBC_2.2.5
                0x0000000000403050                fscanf@@GLIBC_2.2.5
                0x0000000000403060                closedir@@GLIBC_2.2.5
                0x0000000000403070                mkfifo@@GLIBC_2.2.5
                0x0000000000403080                ftruncate@@GLIBC_2.2.5
                0x0000000000403090                bind@@GLIBC_2.2.5
                0x00000000004030a0                fwrite@@GLIBC_2.2.5
                0x00000000004030b0                pthread_rwlock_unlock@@GLIBC_2.2.5
                0x00000000004030c0                pthread_mutex_lock@@GLIBC_2.2.5
                0x00000000004030d0                realloc@@GLIBC_2.2.5
                0x00000000004030e0                shmctl@@GLIBC_2.2.5
                0x00000000004030f0                pthread_mutexattr_init@@GLIBC_2.2.5
                0x0000000000403100                pthread_key_create@@GLIBC_2.2.5
                0x0000000000403110                pthread_mutex_destroy@@GLIBC_2.2.5
                0x0000000000403120                write@@GLIBC_2.2.5
                0x0000000000403130                pthread_rwlock_trywrlock@@GLIBC_2.2.5
                0x0000000000403140                pthread_cond_broadcast@@GLIBC_2.3.2
                0x0000000000403150                nftw@@GLIBC_2.3.3
                0x0000000000403160                clock_gettime@@GLIBC_2.2.5
                0x0000000000403170                sqrt@@GLIBC_2.2.5
                0x0000000000403180                sysinfo@@GLIBC_2.2.5
                0x0000000000403190                pthread_mutex_unlock@@GLIBC_2.2.5
                0x00000000004031a0                pthread_kill@@GLIBC_2.2.5
                0x00000000004031b0                memcpy@@GLIBC_2.14
                0x00000000004031c0                fcntl@@GLIBC_2.2.5
                0x00000000004031d0                open@@GLIBC_2.2.5
                0x00000000004031e0                mmap@@GLIBC_2.2.5
                0x00000000004031f0                mkdir@@GLIBC_2.2.5
                0x0000000000403200                shmat@@GLIBC_2.2.5
                0x0000000000403210                fflush@@GLIBC_2.2.5
 *(.iplt)

.plt.got        0x0000000000403220        0x8
 *(.plt.got)
 .plt.got       0x0000000000403220        0x8 /usr/lib/gcc/x86_64-redhat-linux/4.8.5/../../../../lib64/crt1.o

.plt.bnd
 *(.plt.bnd)

.text           0x0000000000403230    0x62fc0
 *(.text.unlikely .text.*_unlikely .text.unlikely.*)
 *(.text.exit .text.exit.*)
 *(.text.startup .text.startup.*)
 *(.text.hot .text.hot.*)
 *(.text .stub .text.* .gnu.linkonce.t.*)
 .text          0x0000000000403230       0x2a /usr/lib/gcc/x86_64-redhat-linux/4.8.5/../../../../lib64/crt1.o
                0x0000000000403230                _start
 .text          0x000000000040325a        0x0 /usr/lib/gcc/x86_64-redhat-linux/4.8.5/../../../../lib64/crti.o
 *fill*         0x000000000040325a        0x6 
 .text          0x0000000000403260       0xbd /usr/lib/gcc/x86_64-redhat-linux/4.8.5/crtbegin.o
 .text          0x000000000040331d       0x15 /tmp/tmpxft_00004cf2_00000000-5_test_dlink.o
 .text          0x0000000000403332      0x891 aes.o
                0x0000000000403347                KeyExpansion(unsigned char*, unsigned char const*)
                0x00000000004035ca                AES_init_ctx(AES_ctx*, unsigned char const*)
                0x00000000004035eb                AES_init_ctx_iv(AES_ctx*, unsigned char const*, unsigned char const*)
                0x0000000000403633                AES_ctx_set_iv(AES_ctx*, unsigned char const*)
                0x0000000000403654                AddRoundKey(unsigned char, unsigned char (*) [4][4], unsigned char const*)
                0x000000000040367a                SubBytes(unsigned char (*) [4][4])
                0x0000000000403697                ShiftRows(unsigned char (*) [4][4])
                0x00000000004036b4                xtime(unsigned char)
                0x00000000004036d2                MixColumns(unsigned char (*) [4][4])
                0x00000000004036ef                InvMixColumns(unsigned char (*) [4][4])
                0x000000000040370c                InvSubBytes(unsigned char (*) [4][4])
                0x0000000000403729                InvShiftRows(unsigned char (*) [4][4])
                0x0000000000403746                Cipher(unsigned char (*) [4][4], unsigned char const*)
                0x0000000000403767                InvCipher(unsigned char (*) [4][4], unsigned char const*)
                0x0000000000403788                AES_ECB_encrypt(AES_ctx const*, unsigned char*)
                0x00000000004037a9                AES_ECB_decrypt(AES_ctx const*, unsigned char*)
                0x0000000000403813                AES_CBC_encrypt_buffer(AES_ctx*, unsigned char*, unsigned int)
                0x0000000000403837                AES_CBC_decrypt_buffer(AES_ctx*, unsigned char*, unsigned int)
                0x00000000004038a9                __device_stub__Z21AES_CTR_xcrypt_bufferP7AES_ctxPhjm(AES_ctx*, unsigned char*, unsigned int, unsigned long)
                0x00000000004039ef                AES_CTR_xcrypt_buffer(AES_ctx*, unsigned char*, unsigned int, unsigned long)
 *fill*         0x0000000000403bc3        0x1 
 .text._ZN4dim3C2Ejjj
                0x0000000000403bc4       0x30 aes.o
                0x0000000000403bc4                dim3::dim3(unsigned int, unsigned int, unsigned int)
                0x0000000000403bc4                dim3::dim3(unsigned int, unsigned int, unsigned int)
 .text          0x0000000000403bf4      0x838 test.o
                0x0000000000403c09                test_xcrypt_ctr(char const*)
                0x000000000040426b                main
 .text._ZSt4sqrtIiEN9__gnu_cxx11__enable_ifIXsrSt12__is_integerIT_E7__valueEdE6__typeES3_
                0x000000000040442c       0x3d test.o
                0x000000000040442c                __gnu_cxx::__enable_if<std::__is_integer<int>::__value, double>::__type std::sqrt<int>(int)
 *fill*         0x0000000000404469        0x7 
 .text          0x0000000000404470    0x61b68 /usr/local/depot/cuda-10.0/bin/..//lib64/libcudart_static.a(libcudart_static.a.o)
                0x0000000000404470                cudart::getCudartError(cudaError_enum)
                0x00000000004045c0                cudart::cudaApiGetErrorString(cudaError)
                0x0000000000404760                cudart::cudaApiGetErrorName(cudaError)
                0x0000000000404900                cudart::cudaApiSetDoubleForDevice(double*)
                0x0000000000404910                cudart::cudaApiSetDoubleForHost(double*)
                0x0000000000404920                cudart::cudaApiEventCreateFromEGLSync(CUevent_st**, void*, unsigned int)
                0x0000000000404930                cudart::cudaApiCreateChannelDesc(int, int, int, int, cudaChannelFormatKind)
                0x0000000000404950                cudart::toDriverMemsetNodeParams(cudaMemsetParams const*, CUDA_MEMSET_NODE_PARAMS_st*)
                0x0000000000404980                cudart::toRuntimeMemsetNodeParams(CUDA_MEMSET_NODE_PARAMS_st const*, cudaMemsetParams*)
                0x00000000004049b0                cudart::toDriverHostNodeParams(cudaHostNodeParams const*, CUDA_HOST_NODE_PARAMS_st*)
                0x00000000004049c0                cudart::toRuntimeHostNodeParams(CUDA_HOST_NODE_PARAMS_st const*, cudaHostNodeParams*)
                0x00000000004049d0                cudart::toCudartGraphNodeType(CUgraphNodeType_enum, cudaGraphNodeType*)
                0x0000000000404a30                cudart::toRuntimeStreamCaptureStatus(CUstreamCaptureStatus_enum, cudaStreamCaptureStatus*)
                0x0000000000404b50                cudart::cudaApiRuntimeGetVersion(int*)
                0x0000000000404ba0                cudart::cudaApiDeviceGetAttribute(int*, cudaDeviceAttr, int)
                0x0000000000404d30                cudart::cudaApiDriverGetVersion(int*)
                0x0000000000405110                cudart::cudaApiStreamIsCapturing_ptsz(CUstream_st*, cudaStreamCaptureStatus*)
                0x0000000000405120                cudart::cudaApiStreamIsCapturing(CUstream_st*, cudaStreamCaptureStatus*)
                0x0000000000405480                cudart::cudaApiStreamEndCapture_ptsz(CUstream_st*, CUgraph_st**)
                0x0000000000405490                cudart::cudaApiStreamEndCapture(CUstream_st*, CUgraph_st**)
                0x00000000004057e0                cudart::cudaApiStreamBeginCapture_ptsz(CUstream_st*)
                0x00000000004057f0                cudart::cudaApiStreamBeginCapture(CUstream_st*)
                0x0000000000405b50                cudart::cudaApiGraphLaunch_ptsz(CUgraphExec_st*, CUstream_st*)
                0x0000000000405b60                cudart::cudaApiGraphLaunch(CUgraphExec_st*, CUstream_st*)
                0x0000000000405f10                cudart::cudaApiMemPrefetchAsync_ptsz(void const*, unsigned long, int, CUstream_st*)
                0x0000000000405f20                cudart::cudaApiMemPrefetchAsync(void const*, unsigned long, int, CUstream_st*)
                0x00000000004062c0                cudart::cudaApiLaunchHostFunc_ptsz(CUstream_st*, void (*)(void*), void*)
                0x00000000004062d0                cudart::cudaApiLaunchHostFunc(CUstream_st*, void (*)(void*), void*)
                0x0000000000406630                cudart::cudaApiEventRecord_ptsz(CUevent_st*, CUstream_st*)
                0x0000000000406640                cudart::cudaApiEventRecord(CUevent_st*, CUstream_st*)
                0x0000000000406830                cudart::cudaApiStreamQuery_ptsz(CUstream_st*)
                0x0000000000406840                cudart::cudaApiStreamQuery(CUstream_st*)
                0x0000000000406bf0                cudart::cudaApiStreamAttachMemAsync_ptsz(CUstream_st*, void*, unsigned long, unsigned int)
                0x0000000000406c00                cudart::cudaApiStreamAttachMemAsync(CUstream_st*, void*, unsigned long, unsigned int)
                0x0000000000406f60                cudart::cudaApiStreamGetFlags_ptsz(CUstream_st*, unsigned int*)
                0x0000000000406f70                cudart::cudaApiStreamGetFlags(CUstream_st*, unsigned int*)
                0x00000000004072d0                cudart::cudaApiStreamGetPriority_ptsz(CUstream_st*, int*)
                0x00000000004072e0                cudart::cudaApiStreamGetPriority(CUstream_st*, int*)
                0x00000000004072f0                __cudaRegisterFunction
                0x0000000000407390                __cudaRegisterSurface
                0x0000000000407410                __cudaRegisterTexture
                0x00000000004074a0                __cudaRegisterHostVar
                0x0000000000407500                __cudaRegisterManagedVar
                0x00000000004075a0                __cudaRegisterVar
                0x0000000000407640                __cudaUnregisterFatBinary
                0x0000000000407670                __cudaRegisterFatBinaryEnd
                0x00000000004076a0                __cudaRegisterFatBinary
                0x00000000004076e0                cudart::toRuntimeKernelNodeParams(CUDA_KERNEL_NODE_PARAMS_st const*, cudaKernelNodeParams*)
                0x0000000000407780                cudart::cudaApiGetChannelDesc(cudaChannelFormatDesc*, cudaArray const*)
                0x0000000000408280                cudart::cudaApiMemset3DAsync(cudaPitchedPtr, int, cudaExtent, CUstream_st*)
                0x00000000004083e0                cudart::cudaApiMemset3D_ptds(cudaPitchedPtr, int, cudaExtent)
                0x0000000000408540                cudart::cudaApiMemset2DAsync(void*, unsigned long, int, unsigned long, unsigned long, CUstream_st*)
                0x0000000000408600                cudart::cudaApiMemset2D_ptds(void*, unsigned long, int, unsigned long, unsigned long)
                0x00000000004086c0                cudart::cudaApiMemsetAsync(void*, int, unsigned long, CUstream_st*)
                0x0000000000408760                cudart::cudaApiMemset_ptds(void*, int, unsigned long)
                0x0000000000408a20                cudart::cudaApiMemcpy3DPeerAsync_ptsz(cudaMemcpy3DPeerParms const*, CUstream_st*)
                0x0000000000408a30                cudart::cudaApiMemcpy3DPeerAsync(cudaMemcpy3DPeerParms const*, CUstream_st*)
                0x0000000000408c60                cudart::cudaApiMemcpy3DPeer_ptds(cudaMemcpy3DPeerParms const*)
                0x0000000000408c70                cudart::cudaApiMemcpy3DPeer(cudaMemcpy3DPeerParms const*)
                0x0000000000408c80                cudart::cudaApiMemcpy3DAsync_ptsz(cudaMemcpy3DParms const*, CUstream_st*)
                0x0000000000408d10                cudart::cudaApiMemcpy3D_ptds(cudaMemcpy3DParms const*)
                0x0000000000408d80                cudart::cudaApiMemcpy2DArrayToArray(cudaArray*, unsigned long, unsigned long, cudaArray const*, unsigned long, unsigned long, unsigned long, unsigned long, cudaMemcpyKind)
                0x0000000000408e50                cudart::cudaApiMemcpyArrayToArray_ptds(cudaArray*, unsigned long, unsigned long, cudaArray const*, unsigned long, unsigned long, unsigned long, cudaMemcpyKind)
                0x0000000000408f20                cudart::cudaApiMemcpy2DFromArrayAsync(void*, unsigned long, cudaArray const*, unsigned long, unsigned long, unsigned long, unsigned long, cudaMemcpyKind, CUstream_st*)
                0x0000000000409000                cudart::cudaApiMemcpy2DFromArray_ptds(void*, unsigned long, cudaArray const*, unsigned long, unsigned long, unsigned long, unsigned long, cudaMemcpyKind)
                0x00000000004090e0                cudart::cudaApiMemcpyFromArrayAsync(void*, cudaArray const*, unsigned long, unsigned long, unsigned long, cudaMemcpyKind, CUstream_st*)
                0x00000000004091b0                cudart::cudaApiMemcpyFromArray(void*, cudaArray const*, unsigned long, unsigned long, unsigned long, cudaMemcpyKind)
                0x0000000000409280                cudart::cudaApiMemcpy2DToArrayAsync(cudaArray*, unsigned long, unsigned long, void const*, unsigned long, unsigned long, unsigned long, cudaMemcpyKind, CUstream_st*)
                0x0000000000409360                cudart::cudaApiMemcpy2DToArray(cudaArray*, unsigned long, unsigned long, void const*, unsigned long, unsigned long, unsigned long, cudaMemcpyKind)
                0x0000000000409440                cudart::cudaApiMemcpyToArrayAsync(cudaArray*, unsigned long, unsigned long, void const*, unsigned long, cudaMemcpyKind, CUstream_st*)
                0x0000000000409510                cudart::cudaApiMemcpyToArray_ptds(cudaArray*, unsigned long, unsigned long, void const*, unsigned long, cudaMemcpyKind)
                0x00000000004095e0                cudart::cudaApiMemcpy2DAsync(void*, unsigned long, void const*, unsigned long, unsigned long, unsigned long, cudaMemcpyKind, CUstream_st*)
                0x00000000004096b0                cudart::cudaApiMemcpy2D_ptds(void*, unsigned long, void const*, unsigned long, unsigned long, unsigned long, cudaMemcpyKind)
                0x0000000000409780                cudart::cudaApiMemcpyAsync(void*, void const*, unsigned long, cudaMemcpyKind, CUstream_st*)
                0x0000000000409830                cudart::cudaApiMemcpy_ptds(void*, void const*, unsigned long, cudaMemcpyKind)
                0x00000000004098d0                cudart::cudaApiMallocMipmappedArray(cudaMipmappedArray**, cudaChannelFormatDesc const*, cudaExtent, unsigned int, unsigned int)
                0x00000000004099b0                cudart::cudaApiMalloc3DArray(cudaArray**, cudaChannelFormatDesc const*, cudaExtent, unsigned int)
                0x0000000000409a80                cudart::cudaApiMallocArray(cudaArray**, cudaChannelFormatDesc const*, unsigned long, unsigned long, unsigned int)
                0x0000000000409b50                cudart::cudaApiFreeHost(void*)
                0x0000000000409bb0                cudart::cudaApiMalloc3D(cudaPitchedPtr*, cudaExtent)
                0x0000000000409c70                cudart::cudaApiMallocPitch(void**, unsigned long*, unsigned long, unsigned long)
                0x0000000000409d20                cudart::cudaApiHostGetFlags(unsigned int*, void*)
                0x0000000000409db0                cudart::cudaApiHostGetDevicePointer(void**, void*, unsigned int)
                0x0000000000409e50                cudart::cudaApiHostAlloc(void**, unsigned long, unsigned int)
                0x0000000000409ee0                cudart::cudaApiMallocHost(void**, unsigned long)
                0x0000000000409f60                cudart::cudaApiMalloc(void**, unsigned long)
                0x0000000000409ff0                cudart::cudaApiMallocManaged(void**, unsigned long, unsigned int)
                0x000000000040a090                cudart::cudaApiSetupArgument(void const*, unsigned long, unsigned long)
                0x000000000040a140                cudart::cudaApiConfigureCall(dim3, dim3, unsigned long, CUstream_st*)
                0x000000000040a730                cudart::cudaApiWaitExternalSemaphoresAsync_ptsz(CUexternalSemaphore_st* const*, cudaExternalSemaphoreWaitParams const*, unsigned int, CUstream_st*)
                0x000000000040a740                cudart::cudaApiWaitExternalSemaphoresAsync(CUexternalSemaphore_st* const*, cudaExternalSemaphoreWaitParams const*, unsigned int, CUstream_st*)
                0x000000000040ac90                cudart::cudaApiSignalExternalSemaphoresAsync_ptsz(CUexternalSemaphore_st* const*, cudaExternalSemaphoreSignalParams const*, unsigned int, CUstream_st*)
                0x000000000040aca0                cudart::cudaApiSignalExternalSemaphoresAsync(CUexternalSemaphore_st* const*, cudaExternalSemaphoreSignalParams const*, unsigned int, CUstream_st*)
                0x000000000040af00                cudart::cudaApiStreamAddCallback_ptsz(CUstream_st*, void (*)(CUstream_st*, cudaError, void*), void*, unsigned int)
                0x000000000040af10                cudart::cudaApiStreamAddCallback(CUstream_st*, void (*)(CUstream_st*, cudaError, void*), void*, unsigned int)
                0x000000000040af20                cudart::cudaApiGetDevice(int*)
                0x000000000040b150                cudart::cudaApiPeekAtLastError()
                0x000000000040b180                cudart::cudaApiGetLastError()
                0x000000000040b1b0                cudart::cudaApiGraphExecDestroy(CUgraphExec_st*)
                0x000000000040b360                cudart::cudaApiGraphInstantiate(CUgraphExec_st**, CUgraph_st*, CUgraphNode_st**, char*, unsigned long)
                0x000000000040b560                cudart::cudaApiGraphDestroyNode(CUgraphNode_st*)
                0x000000000040b710                cudart::cudaApiGraphRemoveDependencies(CUgraph_st*, CUgraphNode_st**, CUgraphNode_st**, unsigned long)
                0x000000000040b900                cudaGetExportTable
                0x000000000040ba90                cudart::cudaApiGraphDestroy(CUgraph_st*)
                0x000000000040bc40                cudart::cudaApiGraphAddDependencies(CUgraph_st*, CUgraphNode_st**, CUgraphNode_st**, unsigned long)
                0x000000000040be30                cudart::cudaApiGraphNodeGetDependentNodes(CUgraphNode_st*, CUgraphNode_st**, unsigned long*)
                0x000000000040c010                cudart::cudaApiGraphNodeGetDependencies(CUgraphNode_st*, CUgraphNode_st**, unsigned long*)
                0x000000000040c1f0                cudart::cudaApiGraphGetEdges(CUgraph_st*, CUgraphNode_st**, CUgraphNode_st**, unsigned long*)
                0x000000000040c3e0                cudart::cudaApiGraphGetRootNodes(CUgraph_st*, CUgraphNode_st**, unsigned long*)
                0x000000000040c5c0                cudart::cudaApiGraphGetNodes(CUgraph_st*, CUgraphNode_st**, unsigned long*)
                0x000000000040c7a0                cudart::cudaApiGraphNodeFindInClone(CUgraphNode_st**, CUgraphNode_st*, CUgraph_st*)
                0x000000000040c980                cudart::cudaApiGraphClone(CUgraph_st**, CUgraph_st*)
                0x000000000040cb30                cudart::cudaApiGraphAddEmptyNode(CUgraphNode_st**, CUgraph_st*, CUgraphNode_st**, unsigned long)
                0x000000000040cd20                cudart::cudaApiGraphChildGraphNodeGetGraph(CUgraphNode_st*, CUgraph_st**)
                0x000000000040ced0                cudart::cudaApiGraphAddChildGraphNode(CUgraphNode_st**, CUgraph_st*, CUgraphNode_st**, unsigned long, CUgraph_st*)
                0x000000000040d0d0                cudart::cudaApiGraphMemsetNodeSetParams(CUgraphNode_st*, cudaMemsetParams const*)
                0x000000000040d280                cudart::cudaApiGraphMemcpyNodeSetParams(CUgraphNode_st*, cudaMemcpy3DParms const*)
                0x000000000040d490                cudart::cudaApiGraphMemcpyNodeGetParams(CUgraphNode_st*, cudaMemcpy3DParms*)
                0x000000000040d690                cudart::cudaApiGraphCreate(CUgraph_st**, unsigned int)
                0x000000000040d840                cudart::cudaApiProfilerStart()
                0x000000000040d9e0                cudart::cudaApiProfilerInitialize(char const*, char const*, cudaOutputMode)
                0x000000000040dbc0                cudart::cudaApiGetSurfaceObjectResourceDesc(cudaResourceDesc*, unsigned long long)
                0x000000000040ddd0                cudart::cudaApiDestroySurfaceObject(unsigned long long)
                0x000000000040df80                cudart::cudaApiCreateSurfaceObject(unsigned long long*, cudaResourceDesc const*)
                0x000000000040e1a0                cudart::cudaApiGetTextureObjectResourceViewDesc(cudaResourceViewDesc*, unsigned long long)
                0x000000000040e500                cudart::cudaApiGetTextureObjectTextureDesc(cudaTextureDesc*, unsigned long long)
                0x000000000040e860                cudart::cudaApiGetTextureObjectResourceDesc(cudaResourceDesc*, unsigned long long)
                0x000000000040ea70                cudart::cudaApiDestroyTextureObject(unsigned long long)
                0x000000000040ec20                cudart::cudaApiCreateTextureObject(unsigned long long*, cudaResourceDesc const*, cudaTextureDesc const*, cudaResourceViewDesc const*)
                0x000000000040eea0                cudart::cudaApiGraphicsResourceGetMappedMipmappedArray(cudaMipmappedArray**, cudaGraphicsResource*)
                0x000000000040f090                cudart::cudaApiGraphicsSubResourceGetMappedArray(cudaArray**, cudaGraphicsResource*, unsigned int, unsigned int)
                0x000000000040f2a0                cudart::cudaApiGraphicsResourceGetMappedPointer(void**, unsigned long*, cudaGraphicsResource*)
                0x000000000040f430                cudart::cudaApiGraphicsUnmapResources(int, cudaGraphicsResource**, CUstream_st*)
                0x000000000040f610                cudart::cudaApiGraphicsMapResources(int, cudaGraphicsResource**, CUstream_st*)
                0x000000000040f7f0                cudart::cudaApiGraphicsResourceSetMapFlags(cudaGraphicsResource*, unsigned int)
                0x000000000040f9b0                cudart::cudaApiGraphicsUnregisterResource(cudaGraphicsResource*)
                0x000000000040fb60                cudart::cudaApiGraphicsVDPAURegisterOutputSurface(cudaGraphicsResource**, unsigned int, unsigned int)
                0x000000000040fd40                cudart::cudaApiGraphicsVDPAURegisterVideoSurface(cudaGraphicsResource**, unsigned int, unsigned int)
                0x000000000040ff20                cudart::cudaApiVDPAUGetDevice(int*, unsigned int, VdpStatus (*)(unsigned int, unsigned int, void**))
                0x00000000004100b0                cudart::cudaApiGraphicsGLRegisterBuffer(cudaGraphicsResource**, unsigned int, unsigned int)
                0x0000000000410290                cudart::cudaApiGraphicsGLRegisterImage(cudaGraphicsResource**, unsigned int, unsigned int, unsigned int)
                0x0000000000410480                cudart::cudaApiGLSetBufferObjectMapFlags(unsigned int, unsigned int)
                0x0000000000410630                cudart::cudaApiGLUnregisterBufferObject(unsigned int)
                0x0000000000410940                cudart::cudaApiGLUnmapBufferObjectAsync(unsigned int, CUstream_st*)
                0x0000000000410af0                cudart::cudaApiGLUnmapBufferObject(unsigned int)
                0x0000000000410ca0                cudart::cudaApiGLMapBufferObjectAsync(void**, unsigned int, CUstream_st*)
                0x0000000000410e80                cudart::cudaApiGLMapBufferObject(void**, unsigned int)
                0x0000000000411040                cudart::cudaApiGLRegisterBufferObject(unsigned int)
                0x0000000000411350                cudart::cudaApiGraphicsResourceGetMappedEglFrame(cudaEglFrame_st*, cudaGraphicsResource*, unsigned int, unsigned int)
                0x00000000004115e0                cudart::cudaApiEGLStreamProducerReturnFrame(CUeglStreamConnection_st**, cudaEglFrame_st*, CUstream_st**)
                0x0000000000411840                cudart::cudaApiEGLStreamProducerPresentFrame(CUeglStreamConnection_st**, cudaEglFrame_st, CUstream_st**)
                0x0000000000412200                cudart::cudaApiEGLStreamProducerDisconnect(CUeglStreamConnection_st**)
                0x00000000004123b0                cudart::cudaApiEGLStreamProducerConnect(CUeglStreamConnection_st**, void*, int, int)
                0x00000000004125a0                cudart::cudaApiEGLStreamConsumerReleaseFrame(CUeglStreamConnection_st**, cudaGraphicsResource*, CUstream_st**)
                0x0000000000412780                cudart::cudaApiEGLStreamConsumerAcquireFrame(CUeglStreamConnection_st**, cudaGraphicsResource**, CUstream_st**, unsigned int)
                0x0000000000412970                cudart::cudaApiEGLStreamConsumerDisconnect(CUeglStreamConnection_st**)
                0x0000000000412b20                cudart::cudaApiEGLStreamConsumerConnectWithFlags(CUeglStreamConnection_st**, void*, unsigned int)
                0x0000000000412d00                cudart::cudaApiEGLStreamConsumerConnect(CUeglStreamConnection_st**, void*)
                0x0000000000412eb0                cudart::cudaApiGraphicsEGLRegisterImage(cudaGraphicsResource**, void*, unsigned int)
                0x0000000000413090                cudart::cudaApiMemRangeGetAttributes(void**, unsigned long*, cudaMemRangeAttribute*, unsigned long, void const*, unsigned long)
                0x0000000000413220                cudart::cudaApiMemRangeGetAttribute(void*, unsigned long, cudaMemRangeAttribute, void const*, unsigned long)
                0x00000000004133b0                cudart::cudaApiMemAdvise(void const*, unsigned long, cudaMemoryAdvise, int)
                0x0000000000413540                cudart::cudaApiArrayGetInfo(cudaChannelFormatDesc*, cudaExtent*, unsigned int*, cudaArray*)
                0x00000000004137d0                cudart::cudaApiMemGetInfo(unsigned long*, unsigned long*)
                0x0000000000413980                cudart::cudaApiFreeMipmappedArray(cudaMipmappedArray*)
                0x0000000000413b40                cudart::cudaApiGetMipmappedArrayLevel(cudaArray**, cudaMipmappedArray const*, unsigned int)
                0x0000000000413d20                cudart::cudaApiFreeArray(cudaArray*)
                0x0000000000413ee0                cudart::cudaApiPointerGetAttributes(cudaPointerAttributes*, void const*)
                0x0000000000414250                cudart::cudaApiFree(void*)
                0x0000000000414410                cudart::cudaApiHostUnregister(void*)
                0x00000000004145c0                cudart::cudaApiHostRegister(void*, unsigned long, unsigned int)
                0x00000000004147a0                cudart::cudaApiDestroyExternalSemaphore(CUexternalSemaphore_st*)
                0x0000000000414950                cudart::cudaApiImportExternalSemaphore(CUexternalSemaphore_st**, cudaExternalSemaphoreHandleDesc const*)
                0x0000000000414c00                cudart::cudaApiDestroyExternalMemory(CUexternalMemory_st*)
                0x0000000000414db0                cudart::cudaApiExternalMemoryGetMappedMipmappedArray(cudaMipmappedArray**, CUexternalMemory_st*, cudaExternalMemoryMipmappedArrayDesc const*)
                0x0000000000415010                cudart::cudaApiExternalMemoryGetMappedBuffer(void**, CUexternalMemory_st*, cudaExternalMemoryBufferDesc const*)
                0x0000000000415230                cudart::cudaApiImportExternalMemory(CUexternalMemory_st**, cudaExternalMemoryHandleDesc const*)
                0x00000000004154f0                cudart::cudaApiEventElapsedTime(float*, CUevent_st*, CUevent_st*)
                0x00000000004156f0                cudart::cudaApiEventDestroy(CUevent_st*)
                0x00000000004158a0                cudart::cudaApiEventSynchronize(CUevent_st*)
                0x0000000000415a30                cudart::cudaApiEventQuery(CUevent_st*)
                0x0000000000415be0                cudart::cudaApiEventCreateWithFlags(CUevent_st**, unsigned int)
                0x0000000000415dc0                cudart::cudaApiEventCreate(CUevent_st**)
                0x00000000004160e0                cudart::cudaApiStreamWaitEvent_ptsz(CUstream_st*, CUevent_st*, unsigned int)
                0x00000000004162c0                cudart::cudaApiStreamWaitEvent(CUstream_st*, CUevent_st*, unsigned int)
                0x00000000004164a0                cudart::cudaApiStreamSynchronize_ptsz(CUstream_st*)
                0x0000000000416650                cudart::cudaApiStreamSynchronize(CUstream_st*)
                0x0000000000416800                cudart::cudaApiStreamDestroy(CUstream_st*)
                0x00000000004169b0                cudart::cudaApiDeviceGetStreamPriorityRange(int*, int*)
                0x0000000000416b60                cudart::cudaApiStreamCreateWithPriority(CUstream_st**, unsigned int, int)
                0x0000000000416d40                cudart::cudaApiStreamCreateWithFlags(CUstream_st**, unsigned int)
                0x0000000000416ef0                cudart::cudaApiStreamCreate(CUstream_st**)
                0x00000000004170a0                cudart::cudaApiDeviceGetP2PAttribute(int*, cudaDeviceP2PAttr, int, int)
                0x0000000000417230                cudart::cudaApiSetValidDevices(int*, int)
                0x0000000000417400                cudart::cudaApiIpcCloseMemHandle(void*)
                0x00000000004175b0                cudart::cudaApiIpcOpenMemHandle(void**, cudaIpcMemHandle_st, unsigned int)
                0x0000000000417870                cudart::cudaApiIpcGetMemHandle(cudaIpcMemHandle_st*, void*)
                0x0000000000417a70                cudart::cudaApiIpcOpenEventHandle(CUevent_st**, cudaIpcEventHandle_st)
                0x0000000000417d30                cudart::cudaApiIpcGetEventHandle(cudaIpcEventHandle_st*, CUevent_st*)
                0x0000000000417f30                cudart::cudaApiDeviceGetPCIBusId(char*, int, int)
                0x0000000000418110                cudart::cudaApiDeviceGetByPCIBusId(int*, char const*)
                0x00000000004182c0                cudart::cudaApiDeviceSetSharedMemConfig(cudaSharedMemConfig)
                0x0000000000418470                cudart::cudaApiDeviceSetCacheConfig(cudaFuncCache)
                0x0000000000418620                cudart::cudaApiThreadSetCacheConfig(cudaFuncCache)
                0x00000000004187d0                cudart::cudaApiDeviceGetSharedMemConfig(cudaSharedMemConfig*)
                0x0000000000418980                cudart::cudaApiDeviceGetCacheConfig(cudaFuncCache*)
                0x0000000000418b30                cudart::cudaApiThreadGetCacheConfig(cudaFuncCache*)
                0x0000000000418ce0                cudart::cudaApiDeviceGetLimit(unsigned long*, cudaLimit)
                0x0000000000418e90                cudart::cudaApiThreadGetLimit(unsigned long*, cudaLimit)
                0x0000000000419040                cudart::cudaApiDeviceSetLimit(cudaLimit, unsigned long)
                0x00000000004191f0                cudart::cudaApiThreadSetLimit(cudaLimit, unsigned long)
                0x00000000004193a0                cudart::cudaApiDeviceSynchronize()
                0x0000000000419540                cudart::cudaApiThreadSynchronize()
                0x00000000004196e0                __cudaPopCallConfiguration
                0x00000000004197b0                cudart::cudaApiGraphHostNodeSetParams(CUgraphNode_st*, cudaHostNodeParams const*)
                0x0000000000419990                cudart::cudaApiGraphAddHostNode(CUgraphNode_st**, CUgraph_st*, CUgraphNode_st**, unsigned long, cudaHostNodeParams const*)
                0x0000000000419ba0                __cudaInitModule
                0x0000000000419c70                cudart::cudaApiProfilerStop()
                0x0000000000419e30                cudart::cudaApiGraphHostNodeGetParams(CUgraphNode_st*, cudaHostNodeParams*)
                0x000000000041a030                cudart::cudaApiThreadExit()
                0x000000000041a270                cudart::cudaApiVDPAUSetVDPAUDevice(int, unsigned int, VdpStatus (*)(unsigned int, unsigned int, void**))
                0x000000000041a5e0                cudart::cudaApiGLSetGLDevice(int)
                0x000000000041a920                cudart::cudaApiGLGetDevices(unsigned int*, int*, unsigned int, cudaGLDeviceList)
                0x000000000041ae80                cudart::cudaApiDeviceDisablePeerAccess(int)
                0x000000000041b090                cudart::cudaApiDeviceEnablePeerAccess(int, unsigned int)
                0x000000000041b2d0                cudart::cudaApiDeviceCanAccessPeer(int*, int, int)
                0x000000000041b500                cudart::cudaApiGetDeviceCount(int*)
                0x000000000041b560                cudart::cudaApiSetDeviceFlags(unsigned int)
                0x000000000041b7b0                cudart::cudaApiSetDevice(int)
                0x000000000041b990                cudart::cudaApiMemcpyPeerAsync(void*, int, void const*, int, unsigned long, CUstream_st*)
                0x000000000041bc60                cudart::cudaApiMemcpyPeer(void*, int, void const*, int, unsigned long)
                0x000000000041bf30                cudart::cudaApiLaunchCooperativeKernelMultiDevice(cudaLaunchParams*, unsigned int, unsigned int)
                0x000000000041c430                cudart::cudaApiChooseDevice(int*, cudaDeviceProp const*)
                0x000000000041c4b0                cudart::cudaApiGetDeviceProperties(cudaDeviceProp*, int)
                0x000000000041c550                cudart::cudaApiDeviceReset()
                0x000000000041c630                cudart::cudaApiGetDeviceFlags(unsigned int*)
                0x000000000041cc60                cudart::cudaApiGraphMemsetNodeGetParams(CUgraphNode_st*, cudaMemsetParams*)
                0x000000000041ce80                cudart::cudaApiGraphNodeGetType(CUgraphNode_st*, cudaGraphNodeType*)
                0x000000000041d1a0                cudart::cudaApiGraphKernelNodeGetParams(CUgraphNode_st*, cudaKernelNodeParams*)
                0x000000000041d3f0                cudart::cudaApiMemcpy2DArrayToArray_ptds(cudaArray*, unsigned long, unsigned long, cudaArray const*, unsigned long, unsigned long, unsigned long, unsigned long, cudaMemcpyKind)
                0x000000000041d4c0                cudart::cudaApiMemcpyArrayToArray(cudaArray*, unsigned long, unsigned long, cudaArray const*, unsigned long, unsigned long, unsigned long, cudaMemcpyKind)
                0x000000000041d590                cudart::cudaApiMemcpy2DFromArrayAsync_ptsz(void*, unsigned long, cudaArray const*, unsigned long, unsigned long, unsigned long, unsigned long, cudaMemcpyKind, CUstream_st*)
                0x000000000041d670                cudart::cudaApiMemcpy2DToArrayAsync_ptsz(cudaArray*, unsigned long, unsigned long, void const*, unsigned long, unsigned long, unsigned long, cudaMemcpyKind, CUstream_st*)
                0x000000000041d750                cudart::cudaApiMemset3DAsync_ptsz(cudaPitchedPtr, int, cudaExtent, CUstream_st*)
                0x000000000041d8c0                cudart::cudaApiMemcpy2DAsync_ptsz(void*, unsigned long, void const*, unsigned long, unsigned long, unsigned long, cudaMemcpyKind, CUstream_st*)
                0x000000000041d990                cudart::cudaApiMemset3D(cudaPitchedPtr, int, cudaExtent)
                0x000000000041daf0                cudart::cudaApiMemcpyToArrayAsync_ptsz(cudaArray*, unsigned long, unsigned long, void const*, unsigned long, cudaMemcpyKind, CUstream_st*)
                0x000000000041dbc0                cudart::cudaApiMemcpy2DToArray_ptds(cudaArray*, unsigned long, unsigned long, void const*, unsigned long, unsigned long, unsigned long, cudaMemcpyKind)
                0x000000000041dca0                cudart::cudaApiMemcpy2DFromArray(void*, unsigned long, cudaArray const*, unsigned long, unsigned long, unsigned long, unsigned long, cudaMemcpyKind)
                0x000000000041dd80                cudart::cudaApiMemcpyFromArrayAsync_ptsz(void*, cudaArray const*, unsigned long, unsigned long, unsigned long, cudaMemcpyKind, CUstream_st*)
                0x000000000041de50                cudart::cudaApiMemset2DAsync_ptsz(void*, unsigned long, int, unsigned long, unsigned long, CUstream_st*)
                0x000000000041df10                cudart::cudaApiMemcpy2D(void*, unsigned long, void const*, unsigned long, unsigned long, unsigned long, cudaMemcpyKind)
                0x000000000041dfe0                cudart::cudaApiMemcpyAsync_ptsz(void*, void const*, unsigned long, cudaMemcpyKind, CUstream_st*)
                0x000000000041e090                cudart::cudaApiMemcpy(void*, void const*, unsigned long, cudaMemcpyKind)
                0x000000000041e120                cudart::cudaApiMemcpyFromArray_ptds(void*, cudaArray const*, unsigned long, unsigned long, unsigned long, cudaMemcpyKind)
                0x000000000041e1f0                cudart::cudaApiMemcpyToArray(cudaArray*, unsigned long, unsigned long, void const*, unsigned long, cudaMemcpyKind)
                0x000000000041e2c0                cudart::cudaApiMemsetAsync_ptsz(void*, int, unsigned long, CUstream_st*)
                0x000000000041e360                cudart::cudaApiMemset2D(void*, unsigned long, int, unsigned long, unsigned long)
                0x000000000041e420                cudart::cudaApiMemset(void*, int, unsigned long)
                0x000000000041e4b0                cudart::cudaApiMemcpy3DAsync(cudaMemcpy3DParms const*, CUstream_st*)
                0x000000000041e540                cudart::cudaApiMemcpy3D(cudaMemcpy3DParms const*)
                0x000000000041e5b0                __cudaPushCallConfiguration
                0x000000000041e6d0                cudart::cudaApiGraphKernelNodeSetParams(CUgraphNode_st*, cudaKernelNodeParams const*)
                0x000000000041e920                cudart::cudaApiBindTextureToMipmappedArray(textureReference const*, cudaMipmappedArray const*, cudaChannelFormatDesc const*)
                0x000000000041e9b0                cudart::cudaApiGetSymbolSize(unsigned long*, void const*)
                0x000000000041ea30                cudart::cudaApiGetSymbolAddress(void**, void const*)
                0x000000000041ebd0                cudart::cudaApiMemcpyFromSymbolAsync_ptsz(void*, void const*, unsigned long, unsigned long, cudaMemcpyKind, CUstream_st*)
                0x000000000041ebf0                cudart::cudaApiMemcpyFromSymbolAsync(void*, void const*, unsigned long, unsigned long, cudaMemcpyKind, CUstream_st*)
                0x000000000041ed20                cudart::cudaApiMemcpyFromSymbol_ptds(void*, void const*, unsigned long, unsigned long, cudaMemcpyKind)
                0x000000000041ed30                cudart::cudaApiMemcpyFromSymbol(void*, void const*, unsigned long, unsigned long, cudaMemcpyKind)
                0x000000000041ed40                cudart::cudaApiBindTexture(unsigned long*, textureReference const*, void const*, cudaChannelFormatDesc const*, unsigned long)
                0x000000000041ee00                cudart::cudaApiBindTexture2D(unsigned long*, textureReference const*, void const*, cudaChannelFormatDesc const*, unsigned long, unsigned long, unsigned long)
                0x000000000041eee0                cudart::cudaApiBindTextureToArray(textureReference const*, cudaArray const*, cudaChannelFormatDesc const*)
                0x000000000041ef70                cudart::cudaApiBindSurfaceToArray(surfaceReference const*, cudaArray const*, cudaChannelFormatDesc const*)
                0x000000000041f000                cudart::cudaApiGetTextureReference(textureReference const**, void const*)
                0x000000000041f0a0                cudart::cudaApiGetTextureAlignmentOffset(unsigned long*, textureReference const*)
                0x000000000041f120                cudart::cudaApiUnbindTexture(textureReference const*)
                0x000000000041f190                cudart::toDriverKernelNodeParams(cudaKernelNodeParams const*, CUDA_KERNEL_NODE_PARAMS_st*)
                0x000000000041f230                cudart::cudaApiGetSurfaceReference(surfaceReference const**, void const*)
                0x000000000041f2d0                cudart::cudaApiFuncSetCacheConfig(void const*, cudaFuncCache)
                0x000000000041f4c0                cudart::cudaApiOccupancyMaxActiveBlocksPerMultiprocessorWithFlags(int*, void const*, int, unsigned long, unsigned int)
                0x000000000041f6e0                cudart::cudaApiOccupancyMaxActiveBlocksPerMultiprocessor(int*, void const*, int, unsigned long)
                0x000000000041f820                cudart::cudaApiMemcpyToSymbolAsync_ptsz(void const*, void const*, unsigned long, unsigned long, cudaMemcpyKind, CUstream_st*)
                0x000000000041f840                cudart::cudaApiMemcpyToSymbolAsync(void const*, void const*, unsigned long, unsigned long, cudaMemcpyKind, CUstream_st*)
                0x000000000041fd70                cudart::cudaApiLaunchCooperativeKernel_ptsz(void const*, dim3, dim3, void**, unsigned long, CUstream_st*)
                0x000000000041fdb0                cudart::cudaApiLaunchCooperativeKernel(void const*, dim3, dim3, void**, unsigned long, CUstream_st*)
                0x0000000000420320                cudart::cudaApiLaunchKernel_ptsz(void const*, dim3, dim3, void**, unsigned long, CUstream_st*)
                0x0000000000420360                cudart::cudaApiLaunchKernel(void const*, dim3, dim3, void**, unsigned long, CUstream_st*)
                0x0000000000420810                cudart::cudaApiLaunch_ptsz(void const*)
                0x0000000000420820                cudart::cudaApiLaunch(void const*)
                0x0000000000420830                cudart::cudaApiFuncSetSharedMemConfig(void const*, cudaSharedMemConfig)
                0x0000000000420a20                cudart::cudaApiFuncSetAttribute(void const*, cudaFuncAttribute, int)
                0x0000000000420c50                cudart::cudaApiFuncGetAttributes(cudaFuncAttributes*, void const*)
                0x00000000004218a0                cudart::cudaApiMemcpyToSymbol_ptds(void const*, void const*, unsigned long, unsigned long, cudaMemcpyKind)
                0x00000000004218b0                cudart::cudaApiMemcpyToSymbol(void const*, void const*, unsigned long, unsigned long, cudaMemcpyKind)
                0x00000000004218c0                cudart::cudaApiGraphAddKernelNode(CUgraphNode_st**, CUgraph_st*, CUgraphNode_st**, unsigned long, cudaKernelNodeParams const*)
                0x0000000000421b50                cudart::cudaApiGraphAddMemcpyNode(CUgraphNode_st**, CUgraph_st*, CUgraphNode_st**, unsigned long, cudaMemcpy3DParms const*)
                0x0000000000421fd0                cudart::cudaApiGraphAddMemsetNode(CUgraphNode_st**, CUgraph_st*, CUgraphNode_st**, unsigned long, cudaMemsetParams const*)
                0x00000000004235d0                cudart::globalModule::globalModule(void*)
                0x0000000000423640                cudart::globalState::registerFatBinaryEnd(cudart::globalModule*)
                0x0000000000423650                cudart::GlobalStateRef::GlobalStateRef()
                0x0000000000423660                cudart::GlobalStateRef::GlobalStateRef()
                0x0000000000423670                cudart::deviceMgr::getDeviceFromDriver(cudart::device**, int)
                0x00000000004237c0                cudart::deviceMgr::getDevice(cudart::device**, int)
                0x00000000004237e0                cudart::deviceMgr::getDeviceFromPrimaryCtx(CUctx_st*)
                0x0000000000423950                cudart::globalModule::globalModule(void*)
                0x00000000004239c0                cudart::deviceMgr::chooseDevice(cudaDeviceProp const*)
                0x00000000004240a0                cudart::device::updateDeviceProperties()
                0x0000000000424130                cudart::device::resetPrimaryContext()
                0x00000000004241c0                cudart::getGlobalState()
                0x00000000004241f0                cudart::globalState::registerEntryFunction(cudart::globalModule*, char const*, char*, char const*, int, uint3*, uint3*, dim3*, dim3*, int*)
                0x00000000004242c0                cudart::globalState::registerSurface(cudart::globalModule*, surfaceReference const*, void const**, char const*, int, bool)
                0x0000000000424370                cudart::globalState::registerTexture(cudart::globalModule*, textureReference const*, void const**, char const*, int, bool, bool)
                0x0000000000424430                cudart::globalState::registerVar(cudart::globalModule*, char*, char*, char const*, bool, unsigned long, bool, bool)
                0x0000000000424510                cudart::GlobalStateRef::tryRetain()
                0x0000000000424560                cudart::globalState::loadDriver()
                0x00000000004245e0                cudart::globalState::getCurrentContextState()
                0x0000000000424610                cudart::globalState::globalState()
                0x0000000000424690                cudart::globalState::globalState()
                0x0000000000424710                cudart::globalState::initializeDriverEntrypoints()
                0x00000000004277d0                cudart::globalState::loadDriverInternal()
                0x0000000000427890                cudart::globalState::getModuleByVariable(void const*)
                0x0000000000427b80                cudart::globalState::getModuleByEntryFunction(void const*)
                0x0000000000427e70                cudart::globalState::destroyModule(cudart::globalModule*)
                0x00000000004284a0                cudart::globalState::unregisterFatBinary(cudart::globalModule*)
                0x0000000000428500                cudart::globalModule::loadIntoContext(cudart::contextState*)
                0x0000000000428750                cudart::__loadDriverInternalUtil()
                0x0000000000428780                cudart::deviceMgr::enumerateDevices()
                0x00000000004293e0                cudart::globalState::initializeDriverInternal()
                0x0000000000429910                cudart::globalState::registerHostVar(cudart::globalModule*, char const*, void*, unsigned long)
                0x00000000004299d0                cudart::globalState::registerManagedVar(cudart::globalModule*, void**, char*, char const*, bool, unsigned long, bool, bool)
                0x0000000000429b50                cudart::globalState::initializeDriver()
                0x0000000000429c40                cudart::globalState::~globalState()
                0x000000000042a4e0                cudart::globalState::~globalState()
                0x000000000042ad30                cudart::globalState::registerFatBinary(cudart::globalModule**, void*)
                0x000000000042b250                cudart::GlobalStateRef::~GlobalStateRef()
                0x000000000042b2f0                cudart::GlobalStateRef::~GlobalStateRef()
                0x000000000042b340                cudart::threadState::setLastError(cudaError)
                0x000000000042b350                cudart::threadState::peekAtLastError()
                0x000000000042b360                cudart::threadLaunchState::threadLaunchState()
                0x000000000042b370                cudart::threadLaunchState::threadLaunchState()
                0x000000000042b3a0                cudart::getLazyInitContextState(cudart::contextState**)
                0x000000000042b3c0                cudart::threadLaunchState::~threadLaunchState()
                0x000000000042b430                cudart::threadLaunchState::addArgumentToTopConfig(void const*, unsigned long, unsigned long) const
                0x000000000042b440                cudart::threadLaunchState::pushConfig(dim3, dim3, unsigned long, CUstream_st*)
                0x000000000042b500                cudart::threadState::threadState(cudaError*)
                0x000000000042b680                cudart::threadState::threadState(cudaError*)
                0x000000000042b800                cudart::threadLaunchState::popConfigForLaunch(cudart::configData const**)
                0x000000000042b8b0                cudart::threadLaunchState::~threadLaunchState()
                0x000000000042b920                cudart::threadState::getLastError()
                0x000000000042b930                cudart::threadState::getDeviceToTry(cudart::device**, int)
                0x000000000042b9c0                cudart::threadState::getNumDevicesToTry(int*)
                0x000000000042ba40                cudart::threadState::setValidDevices(int*, int)
                0x000000000042be50                cudart::doLazyInitContextState()
                0x000000000042be80                cudart::threadState::~threadState()
                0x000000000042bf10                cudart::threadState::~threadState()
                0x000000000042bfa0                cudart::threadState::~threadState()
                0x000000000042c030                cudart::module::module(cudart::contextState*, CUmod_st*, cudaError_enum)
                0x000000000042c0b0                cudart::cudaVariable::cudaVariable(void*, CUmod_st*, char const*, bool)
                0x000000000042c0c0                cudart::cudaVariable::cudaVariable(void*, CUmod_st*, char const*, bool)
                0x000000000042c0d0                cudart::cudaVariable::setStorage(bool)
                0x000000000042c0e0                cudart::cudaTexture::cudaTexture(textureReference const*, int, bool, bool, CUtexref_st*, cudart::contextState*)
                0x000000000042c110                cudart::cudaTexture::cudaTexture(textureReference const*, int, bool, bool, CUtexref_st*, cudart::contextState*)
                0x000000000042c140                cudart::cudaTexture::setStorage(bool)
                0x000000000042c160                cudart::cudaTexture::unbind()
                0x000000000042c180                cudart::cudaTexture::getTextureAlignmentOffset(unsigned long*) const
                0x000000000042c1b0                cudart::cudaSurface::cudaSurface(surfaceReference const*, int, bool, CUsurfref_st*)
                0x000000000042c1c0                cudart::cudaSurface::cudaSurface(surfaceReference const*, int, bool, CUsurfref_st*)
                0x000000000042c1d0                cudart::cudaSurface::setStorage(bool)
                0x000000000042c1f0                cudart::configData::reset(dim3, dim3, unsigned long, CUstream_st*)
                0x000000000042c270                cudart::configData::~configData()
                0x000000000042c280                cudart::configData::~configData()
                0x000000000042c290                cudart::configData::addArgument(void const*, unsigned long, unsigned long)
                0x000000000042c350                cudart::contextState::removeBoundTexture(cudart::cudaTexture*)
                0x000000000042c3e0                cudart::contextState::addBoundTexture(cudart::cudaTexture*)
                0x000000000042c490                cudart::contextState::contextState(cudart::device*, CUctx_st*)
                0x000000000042c5a0                cudart::cudaSurface::bind(cudaArray const*, cudaChannelFormatDesc const*)
                0x000000000042c5b0                cudart::cudaTexture::setupTexture() const
                0x000000000042c8e0                cudart::contextState::setupBoundTextures()
                0x000000000042c960                cudart::configData::configData()
                0x000000000042c9d0                cudart::configData::configData()
                0x000000000042ca40                cudart::module::module(cudart::contextState*, CUmod_st*, cudaError_enum)
                0x000000000042cac0                cudart::contextState::contextState(cudart::device*, CUctx_st*)
                0x000000000042cbd0                cudart::contextState::getTexture(cudart::cudaTexture**, textureReference const*, cudaError)
                0x000000000042cce0                cudart::contextState::getTextureReference(textureReference const**, void const*)
                0x000000000042cd20                cudart::contextState::getSymbolFromDriverEntryFunction(void**, CUfunc_st*)
                0x000000000042d010                cudart::contextState::getTextureAlignmentOffset(unsigned long*, textureReference const*)
                0x000000000042d070                cudart::contextState::getSurface(cudart::cudaSurface**, surfaceReference const*, cudaError)
                0x000000000042d180                cudart::contextState::getSurfaceReference(surfaceReference const**, void const*)
                0x000000000042d1c0                cudart::contextState::bindSurface(surfaceReference const*, cudaArray const*, cudaChannelFormatDesc const*)
                0x000000000042d200                cudart::contextState::getEntryFunction(cudart::cudaEntryFunction**, void const*, cudaError)
                0x000000000042d310                cudart::contextState::prepareToLaunchFunction(CUfunc_st**, cudart::configData const*, void const*)
                0x000000000042d440                cudart::contextState::getDriverEntryFunction(CUfunc_st**, void const*)
                0x000000000042d480                cudart::contextState::unbindTexture(cudart::cudaTexture*)
                0x000000000042d4d0                cudart::contextState::unbindTextureReference(textureReference const*)
                0x000000000042d540                cudart::contextState::getVariable(cudart::cudaVariable**, void const*, cudaError)
                0x000000000042d630                cudart::contextState::getSymbolSize(unsigned long*, void const*)
                0x000000000042d700                cudart::contextState::getSymbolAddress(void**, void const*)
                0x000000000042d7a0                cudart::contextState::~contextState()
                0x000000000042e1d0                cudart::contextState::~contextState()
                0x000000000042ec00                cudart::contextState::createTexture(cudart::textureTemp const&, cudart::globalModule*)
                0x000000000042f7c0                cudart::contextState::createVariable(cudart::variableTemp const&, cudart::globalModule*)
                0x0000000000430390                cudart::contextState::loadCubin(bool*, cudart::globalModule*)
                0x0000000000430e60                cudart::contextState::deleteVariable(void const*)
                0x0000000000431130                cudart::contextState::deleteTexture(textureReference const*)
                0x0000000000431400                cudart::contextState::deleteEntryFunction(void const*)
                0x00000000004316d0                cudart::contextState::createEntryFunction(cudart::entryFunctionTemp const&, cudart::globalModule*)
                0x0000000000432340                cudart::contextState::deleteSurface(surfaceReference const*)
                0x0000000000432610                cudart::module::unload(bool)
                0x0000000000433690                cudart::contextState::unloadAllModules(bool)
                0x0000000000433e70                cudart::contextState::applyChanges()
                0x0000000000434640                cudart::contextState::createSurface(cudart::surfaceTemp const&, cudart::globalModule*)
                0x00000000004351e0                cudart::contextState::markChangeModuleUnload(cudart::globalModule*)
                0x0000000000435d60                cudart::contextState::markChangeModuleLoad(cudart::globalModule*)
                0x00000000004361c0                cudart::contextState::bindTexture(textureReference const*, cudaMipmappedArray const*, cudaChannelFormatDesc const*)
                0x0000000000436450                cudart::contextState::bindTexture2D(unsigned long*, textureReference const*, char const*, cudaChannelFormatDesc const*, unsigned long, unsigned long, unsigned long)
                0x0000000000436790                cudart::contextState::bindTexture(textureReference const*, cudaArray const*, cudaChannelFormatDesc const*)
                0x0000000000436a20                cudart::contextState::bindTexture(unsigned long*, textureReference const*, char const*, cudaChannelFormatDesc const*, unsigned long)
                0x0000000000436d30                cudart::contextStateManager::isPrimaryCtxInitialized(cudart::device*)
                0x0000000000436d80                cudart::contextStateManager::destroy(cudart::contextStateManager*)
                0x0000000000436ec0                cudart::contextStateManager::create(cudart::contextStateManager**, cudart::globalState*, cudart::deviceMgr*)
                0x0000000000436f70                cudart::contextStateManager::initPrimaryContext(cudart::device*)
                0x00000000004370c0                cudart::contextStateManager::getLazyInitPrimaryContext(CUctx_st**, cudart::device*)
                0x0000000000437100                cudart::contextStateManager::tryInitPrimaryContext(cudart::device*)
                0x0000000000437170                cudart::contextStateManager::notifyContextStatesOfModuleUnload(cudart::globalModule*)
                0x0000000000437450                cudart::contextStateManager::getSymbolFromDriverEntryFunction(void**, CUfunc_st*)
                0x0000000000437770                cudart::contextStateManager::notifyContextStatesOfModuleLoad(cudart::globalModule*)
                0x0000000000437a50                cudart::contextStateManager::initDriverContext()
                0x0000000000437c70                cudart::contextStateManager::initRuntimeContextState_nonreentrant(cudart::contextState**)
                0x0000000000438590                cudart::contextStateManager::getRuntimeContextState(cudart::contextState**, bool)
                0x0000000000438670                cudart::contextStateManager::getRuntimeContextState(cudart::contextState**, CUctx_st*)
                0x0000000000438740                cudart::contextStateManager::destroyContextState(cudart::contextState*, bool)
                0x0000000000438a50                cudart::contextStateManager::destroyAllContextStatesOnRuntimeUnload()
                0x0000000000438ce0                cudart::contextStateManager::destroyCurrentThreadContextState()
                0x0000000000438d20                cudart::contextStateManager::destroyContextStateFromDriverContextDestroyCallback(cudart::contextState*)
                0x0000000000438d90                cudart::arrayHelper::getChannelFormatDescFromDriverDesc(cudaChannelFormatDesc*, unsigned long*, unsigned long*, unsigned long*, CUDA_ARRAY3D_DESCRIPTOR_st const*)
                0x0000000000438eb0                cudart::arrayHelper::getDriverArray(cudaArray*)
                0x0000000000438ec0                cudart::arrayHelper::getDescInfo(cudaChannelFormatDesc const*, int&, CUarray_format_enum&)
                0x0000000000439340                cudart::arrayHelper::bytesPerElement(unsigned long*, int, CUarray_format_enum)
                0x00000000004393c0                cudart::arrayHelper::setupTexture(cudaMipmappedArray const*, CUtexref_st*)
                0x00000000004393f0                cudart::arrayHelper::copyToArray(cudaArray const*, unsigned long, unsigned long, cudaArray*, unsigned long, unsigned long, unsigned long, bool)
                0x00000000004396f0                cudart::arrayHelper::bindToSurface(cudaArray const*, CUsurfref_st*)
                0x0000000000439790                cudart::arrayHelper::setupTexture(cudaArray const*, CUtexref_st*)
                0x0000000000439830                cudart::arrayHelper::copyToArray2D(cudaArray const*, unsigned long, unsigned long, cudaArray*, unsigned long, unsigned long, unsigned long, unsigned long, bool)
                0x00000000004399c0                cudart::arrayHelper::copyFromDevice2D(CUmemorytype_enum, cudaArray const*, unsigned long, unsigned long, char const*, unsigned long, unsigned long, unsigned long, unsigned long, CUstream_st*, bool, bool)
                0x0000000000439b80                cudart::arrayHelper::copyFromHost2D(cudaArray const*, unsigned long, unsigned long, char const*, unsigned long, unsigned long, unsigned long, CUstream_st*, bool, bool)
                0x0000000000439d30                cudart::arrayHelper::copyToDevice2D(CUmemorytype_enum, cudaArray const*, unsigned long, unsigned long, char*, unsigned long, unsigned long, unsigned long, unsigned long, CUstream_st*, bool, bool)
                0x0000000000439ef0                cudart::arrayHelper::copyToHost2D(cudaArray const*, unsigned long, unsigned long, char*, unsigned long, unsigned long, unsigned long, CUstream_st*, bool, bool)
                0x000000000043a0a0                cudart::arrayHelper::copyFromDevice(CUmemorytype_enum, cudaArray const*, unsigned long, unsigned long, char const*, unsigned long, unsigned long, CUstream_st*, bool, bool)
                0x000000000043a3d0                cudart::arrayHelper::copyFromHost(cudaArray const*, unsigned long, unsigned long, char const*, unsigned long, CUstream_st*, bool, bool)
                0x000000000043a700                cudart::arrayHelper::copyToDevice(CUmemorytype_enum, cudaArray const*, unsigned long, unsigned long, char*, unsigned long, unsigned long, CUstream_st*, bool, bool)
                0x000000000043aa40                cudart::arrayHelper::copyToHost(cudaArray const*, unsigned long, unsigned long, char*, unsigned long, CUstream_st*, bool, bool)
                0x000000000043ad70                cudart::arrayHelper::writeDstLoc(cudaArray const*, CUDA_MEMCPY3D_st&, cudaPos)
                0x000000000043ae50                cudart::arrayHelper::writeSrcLoc(cudaArray const*, CUDA_MEMCPY3D_st&, cudaPos)
                0x000000000043af30                cudart::arrayHelper::writeExtent(cudaArray const*, CUDA_MEMCPY3D_st&, cudaExtent)
                0x000000000043b000                cudart::arrayHelper::getExtent(cudaArray const*, cudaExtent*)
                0x000000000043b090                cudart::arrayHelper::getChannelDesc(cudaArray const*, cudaChannelFormatDesc*)
                0x000000000043b120                cudart::arrayHelper::getFormat(cudaArray const*, int&, CUarray_format_enum&)
                0x000000000043b1c0                cudart::arrayHelper::getElementSize(unsigned long*, cudaArray*)
                0x000000000043b240                cudart::arrayHelper::getFormat(cudaMipmappedArray const*, int&, CUarray_format_enum&)
                0x000000000043b310                cudart::driverHelper::memset2DPtr(char*, unsigned long, int, unsigned long, unsigned long, CUstream_st*, bool, bool)
                0x000000000043b3a0                cudart::driverHelper::memsetPtr(char*, int, unsigned long, CUstream_st*, bool, bool)
                0x000000000043b420                cudart::driverHelper::memset3DPtr(cudaPitchedPtr, int, cudaExtent, CUstream_st*, bool, bool)
                0x000000000043b7a0                cudart::driverHelper::driverMemcpy3DPeer(CUDA_MEMCPY3D_PEER_st*, CUstream_st*, bool, bool)
                0x000000000043b810                cudart::driverHelper::driverMemcpy3D(CUDA_MEMCPY3D_st*, CUstream_st*, bool, bool)
                0x000000000043b880                cudart::driverHelper::freeHost(void*)
                0x000000000043b8b0                cudart::driverHelper::mallocPitch(unsigned long, unsigned long, unsigned long, void**, unsigned long*)
                0x000000000043b920                cudart::driverHelper::mallocHost(unsigned long, void**, unsigned int)
                0x000000000043b970                cudart::driverHelper::hostGetFlags(unsigned int*, void*)
                0x000000000043b9a0                cudart::driverHelper::hostGetDevicePointer(void*, void**, unsigned int)
                0x000000000043b9d0                cudart::driverHelper::mallocManagedPtr(unsigned long, unsigned int, void**)
                0x000000000043ba00                cudart::driverHelper::mallocPtr(unsigned long, void**)
                0x000000000043ba50                cudart::driverHelper::getCurrentContext(CUctx_st**)
                0x000000000043ba80                cudart::driverHelper::getResDescFromDriverResDesc(cudaResourceDesc*, CUDA_RESOURCE_DESC_st const*, cudaTextureDesc*, CUDA_TEXTURE_DESC_st const*, cudaResourceViewDesc*, CUDA_RESOURCE_VIEW_DESC_st const*)
                0x000000000043bd20                cudart::driverHelper::getDriverResDescFromResDesc(CUDA_RESOURCE_DESC_st*, cudaResourceDesc const*, CUDA_TEXTURE_DESC_st*, cudaTextureDesc const*, CUDA_RESOURCE_VIEW_DESC_st*, cudaResourceViewDesc const*)
                0x000000000043c040                cudart::driverHelper::mallocMipmappedArray(cudaMipmappedArray**, cudaChannelFormatDesc const*, unsigned long, unsigned long, unsigned long, unsigned int, unsigned int)
                0x000000000043c200                cudart::driverHelper::mallocArray(cudaArray**, cudaChannelFormatDesc const*, unsigned long, unsigned long, unsigned long, int, unsigned int)
                0x000000000043c3c0                cudart::driverHelper::toDriverMemCopy3DParams(cudaMemcpy3DParms const*, cudart::device*, cudart::device*, CUDA_MEMCPY3D_st*)
                0x000000000043c790                cudart::driverHelper::toCudartMemCopy3DParams(CUDA_MEMCPY3D_st const*, cudaMemcpy3DParms*)
                0x000000000043cac0                cudart::driverHelper::memcpy2DArrayToArray(cudaArray*, unsigned long, unsigned long, cudaArray const*, unsigned long, unsigned long, unsigned long, unsigned long, cudaMemcpyKind, bool)
                0x000000000043cb40                cudart::driverHelper::memcpyArrayToArray(cudaArray*, unsigned long, unsigned long, cudaArray const*, unsigned long, unsigned long, unsigned long, cudaMemcpyKind, bool)
                0x000000000043cb90                cudart::driverHelper::memcpy2DFromArray(char*, unsigned long, cudaArray const*, unsigned long, unsigned long, unsigned long, unsigned long, cudaMemcpyKind, CUstream_st*, bool, bool)
                0x000000000043ccf0                cudart::driverHelper::memcpyFromArray(char*, cudaArray const*, unsigned long, unsigned long, unsigned long, cudaMemcpyKind, CUstream_st*, bool, bool)
                0x000000000043cdd0                cudart::driverHelper::memcpy2DToArray(cudaArray*, unsigned long, unsigned long, char const*, unsigned long, unsigned long, unsigned long, cudaMemcpyKind, CUstream_st*, bool, bool)
                0x000000000043cf30                cudart::driverHelper::memcpyToArray(cudaArray*, unsigned long, unsigned long, char const*, unsigned long, cudaMemcpyKind, CUstream_st*, bool, bool)
                0x000000000043d010                cudart::driverHelper::memcpy3D(cudaMemcpy3DParms const*, bool, cudart::device*, cudart::device*, CUstream_st*, bool, bool)
                0x000000000043d280                cudart::driverHelper::memcpy2DPtr(char*, unsigned long, char const*, unsigned long, unsigned long, unsigned long, cudaMemcpyKind, CUstream_st*, bool, bool)
                0x000000000043d640                cudart::driverHelper::memcpyAsyncDispatch(void*, void const*, unsigned long, cudaMemcpyKind, CUstream_st*, bool)
                0x000000000043d790                cudart::driverHelper::memcpyDispatch(void*, void const*, unsigned long, cudaMemcpyKind, bool)
                0x000000000043d910                cudart::tlsAutoLock::tlsAutoLock()
                0x000000000043d920                cudart::tlsAutoLock::tlsAutoLock()
                0x000000000043d930                cudart::tlsAutoLock::lockDuringTeardown()
                0x000000000043d950                cudart::tlsAutoLock::~tlsAutoLock()
                0x000000000043d960                cudart::tlsAutoLock::~tlsAutoLock()
                0x000000000043d970                cudart::resetThreadsState()
                0x000000000043d9a0                cudart::clearThreadState()
                0x000000000043d9e0                cudart::getThreadState(cudart::threadState**)
                0x000000000043db00                cudart::tlsMutexDeinitialize()
                0x000000000043db40                cudart::tlsMutexInitialize()
                0x000000000043db80                __cudaGetExportTableInternal
                0x000000000043dd70                cudaDeviceSetLimit
                0x000000000043df30                cudaDeviceSynchronize
                0x000000000043e0b0                cudaDeviceReset
                0x000000000043e230                cudaLaunch
                0x000000000043e3f0                cudaStreamGetPriority
                0x000000000043e5b0                cudaStreamGetFlags
                0x000000000043e770                cudaMemset3D
                0x000000000043ea50                cudaMemset2D
                0x000000000043ec60                cudaMemset
                0x000000000043ee40                cudaMemcpy3DPeer
                0x000000000043efe0                cudaMemcpy3D
                0x000000000043f180                cudaMemcpy2DArrayToArray
                0x000000000043f440                cudaMemcpyArrayToArray
                0x000000000043f6c0                cudaMemcpy2DFromArray
                0x000000000043f940                cudaMemcpyFromArray
                0x000000000043fb70                cudaMemcpy2DToArray
                0x000000000043fdf0                cudaMemcpyToArray
                0x0000000000440020                cudaMemcpy2D
                0x0000000000440280                cudaMemcpyFromSymbol
                0x0000000000440490                cudaMemcpyToSymbol
                0x00000000004406a0                cudaMemcpy
                0x0000000000440890                cudaGraphDestroy
                0x0000000000440a30                cudaGraphExecDestroy
                0x0000000000440bd0                cudaGraphInstantiate
                0x0000000000440de0                cudaGraphDestroyNode
                0x0000000000440f80                cudaGraphRemoveDependencies
                0x0000000000441180                cudaGraphAddDependencies
                0x0000000000441380                cudaGraphNodeGetDependentNodes
                0x0000000000441560                cudaGraphNodeGetDependencies
                0x0000000000441740                cudaGraphGetEdges
                0x0000000000441940                cudaGraphGetRootNodes
                0x0000000000441b20                cudaGraphGetNodes
                0x0000000000441d00                cudaGraphNodeGetType
                0x0000000000441ec0                cudaGraphNodeFindInClone
                0x00000000004420a0                cudaGraphClone
                0x0000000000442260                cudaGraphAddEmptyNode
                0x0000000000442460                cudaGraphChildGraphNodeGetGraph
                0x0000000000442620                cudaGraphAddChildGraphNode
                0x0000000000442830                cudaGraphHostNodeSetParams
                0x00000000004429f0                cudaGraphHostNodeGetParams
                0x0000000000442bb0                cudaGraphAddHostNode
                0x0000000000442dc0                cudaGraphMemsetNodeSetParams
                0x0000000000442f80                cudaGraphMemsetNodeGetParams
                0x0000000000443140                cudaGraphAddMemsetNode
                0x0000000000443350                cudaGraphMemcpyNodeSetParams
                0x0000000000443510                cudaGraphMemcpyNodeGetParams
                0x00000000004436d0                cudaGraphAddMemcpyNode
                0x00000000004438e0                cudaGraphKernelNodeSetParams
                0x0000000000443aa0                cudaGraphKernelNodeGetParams
                0x0000000000443c60                cudaGraphAddKernelNode
                0x0000000000443e70                cudaGraphCreate
                0x0000000000444030                cudaRuntimeGetVersion
                0x00000000004441d0                cudaDriverGetVersion
                0x0000000000444370                cudaGetSurfaceObjectResourceDesc
                0x0000000000444530                cudaDestroySurfaceObject
                0x00000000004446d0                cudaCreateSurfaceObject
                0x0000000000444890                cudaGetTextureObjectResourceViewDesc
                0x0000000000444a50                cudaGetTextureObjectTextureDesc
                0x0000000000444c10                cudaGetTextureObjectResourceDesc
                0x0000000000444dd0                cudaDestroyTextureObject
                0x0000000000444f70                cudaCreateTextureObject
                0x0000000000445170                cudaGetSurfaceReference
                0x0000000000445330                cudaBindSurfaceToArray
                0x0000000000445510                cudaGetTextureReference
                0x00000000004456d0                cudaGetTextureAlignmentOffset
                0x0000000000445890                cudaUnbindTexture
                0x0000000000445a30                cudaBindTextureToMipmappedArray
                0x0000000000445c10                cudaBindTextureToArray
                0x0000000000445df0                cudaBindTexture2D
                0x0000000000446050                cudaBindTexture
                0x0000000000446260                cudaCreateChannelDesc
                0x00000000004464c0                cudaGetChannelDesc
                0x0000000000446680                cudaGraphicsResourceGetMappedMipmappedArray
                0x0000000000446840                cudaGraphicsSubResourceGetMappedArray
                0x0000000000446a40                cudaGraphicsResourceGetMappedPointer
                0x0000000000446c20                cudaGraphicsResourceSetMapFlags
                0x0000000000446de0                cudaGraphicsUnregisterResource
                0x0000000000446f80                cudaDeviceDisablePeerAccess
                0x0000000000447110                cudaDeviceEnablePeerAccess
                0x00000000004472d0                cudaDeviceCanAccessPeer
                0x00000000004474b0                cudaPointerGetAttributes
                0x0000000000447670                cudaMemRangeGetAttributes
                0x00000000004478a0                cudaMemRangeGetAttribute
                0x0000000000447ab0                cudaMemAdvise
                0x0000000000447cb0                cudaGetSymbolSize
                0x0000000000447e70                cudaGetSymbolAddress
                0x0000000000448030                cudaMemset3D_ptds
                0x0000000000448310                cudaMemset2D_ptds
                0x0000000000448520                cudaMemset_ptds
                0x0000000000448700                cudaMemcpyFromSymbol_ptds
                0x0000000000448910                cudaMemcpyToSymbol_ptds
                0x0000000000448b20                cudaMemcpy2DArrayToArray_ptds
                0x0000000000448de0                cudaMemcpy2DFromArray_ptds
                0x0000000000449060                cudaMemcpy2DToArray_ptds
                0x00000000004492e0                cudaMemcpy2D_ptds
                0x0000000000449540                cudaMemcpyArrayToArray_ptds
                0x00000000004497c0                cudaMemcpyFromArray_ptds
                0x00000000004499f0                cudaMemcpyToArray_ptds
                0x0000000000449c20                cudaMemcpyPeer
                0x0000000000449e30                cudaMemcpy_ptds
                0x000000000044a030                cudaArrayGetInfo
                0x000000000044a230                cudaMemGetInfo
                0x000000000044a3f0                cudaMemcpy3DPeer_ptds
                0x000000000044a590                cudaMemcpy3D_ptds
                0x000000000044a730                cudaGetMipmappedArrayLevel
                0x000000000044a910                cudaMallocMipmappedArray
                0x000000000044ab90                cudaMalloc3DArray
                0x000000000044ae00                cudaMalloc3D
                0x000000000044b020                cudaHostGetFlags
                0x000000000044b1e0                cudaHostGetDevicePointer
                0x000000000044b3c0                cudaHostUnregister
                0x000000000044b560                cudaHostRegister
                0x000000000044b740                cudaHostAlloc
                0x000000000044b920                cudaFreeMipmappedArray
                0x000000000044bac0                cudaFreeArray
                0x000000000044bc60                cudaFreeHost
                0x000000000044be00                cudaFree
                0x000000000044bfa0                cudaMallocArray
                0x000000000044c1b0                cudaMallocPitch
                0x000000000044c3a0                cudaMallocHost
                0x000000000044c560                cudaMalloc
                0x000000000044c720                cudaMallocManaged
                0x000000000044c900                cudaLaunch_ptsz
                0x000000000044cac0                cudaSetupArgument
                0x000000000044cca0                cudaOccupancyMaxActiveBlocksPerMultiprocessorWithFlags
                0x000000000044ceb0                cudaOccupancyMaxActiveBlocksPerMultiprocessor
                0x000000000044d0b0                cudaSetDoubleForHost
                0x000000000044d250                cudaSetDoubleForDevice
                0x000000000044d3f0                cudaFuncSetAttribute
                0x000000000044d5d0                cudaFuncGetAttributes
                0x000000000044d790                cudaFuncSetSharedMemConfig
                0x000000000044d950                cudaFuncSetCacheConfig
                0x000000000044db10                cudaLaunchCooperativeKernelMultiDevice
                0x000000000044dcf0                cudaLaunchCooperativeKernel_ptsz
                0x000000000044dfe0                cudaDestroyExternalSemaphore
                0x000000000044e180                cudaImportExternalSemaphore
                0x000000000044e340                cudaDestroyExternalMemory
                0x000000000044e4e0                cudaExternalMemoryGetMappedMipmappedArray
                0x000000000044e6c0                cudaExternalMemoryGetMappedBuffer
                0x000000000044e8a0                cudaImportExternalMemory
                0x000000000044ea60                cudaEventElapsedTime
                0x000000000044ec40                cudaEventDestroy
                0x000000000044ede0                cudaEventSynchronize
                0x000000000044ef80                cudaEventQuery
                0x000000000044f120                cudaEventCreateWithFlags
                0x000000000044f2e0                cudaEventCreate
                0x000000000044f480                cudaStreamGetFlags_ptsz
                0x000000000044f640                cudaStreamGetPriority_ptsz
                0x000000000044f800                cudaStreamCreateWithPriority
                0x000000000044f9e0                cudaStreamCreateWithFlags
                0x000000000044fba0                cudaStreamCreate
                0x000000000044fd40                cudaGetDeviceFlags
                0x000000000044fee0                cudaSetDeviceFlags
                0x0000000000450070                cudaSetValidDevices
                0x0000000000450230                cudaGetDevice
                0x00000000004503d0                cudaSetDevice
                0x0000000000450560                cudaChooseDevice
                0x0000000000450720                cudaDeviceGetP2PAttribute
                0x0000000000450920                cudaDeviceGetAttribute
                0x0000000000450b00                cudaGetDeviceProperties
                0x0000000000450cc0                cudaGetDeviceCount
                0x0000000000450e60                cudaGetErrorString
                0x0000000000450fe0                cudaGetErrorName
                0x0000000000451160                cudaPeekAtLastError
                0x00000000004512d0                cudaGetLastError
                0x0000000000451440                cudaThreadSetCacheConfig
                0x00000000004515d0                cudaThreadGetCacheConfig
                0x0000000000451770                cudaThreadGetLimit
                0x0000000000451930                cudaThreadSetLimit
                0x0000000000451af0                cudaThreadSynchronize
                0x0000000000451c70                cudaThreadExit
                0x0000000000451df0                cudaIpcCloseMemHandle
                0x0000000000451f90                cudaIpcOpenMemHandle
                0x00000000004522c0                cudaIpcGetMemHandle
                0x0000000000452480                cudaIpcOpenEventHandle
                0x0000000000452790                cudaIpcGetEventHandle
                0x0000000000452950                cudaDeviceGetPCIBusId
                0x0000000000452b30                cudaDeviceGetByPCIBusId
                0x0000000000452cf0                cudaDeviceSetSharedMemConfig
                0x0000000000452e80                cudaDeviceGetSharedMemConfig
                0x0000000000453020                cudaDeviceSetCacheConfig
                0x00000000004531b0                cudaDeviceGetStreamPriorityRange
                0x0000000000453370                cudaDeviceGetCacheConfig
                0x0000000000453510                cudaDeviceGetLimit
                0x00000000004536d0                cudaStreamBeginCapture
                0x0000000000453880                cudaGraphLaunch
                0x0000000000453a50                cudaWaitExternalSemaphoresAsync
                0x0000000000453c50                cudaSignalExternalSemaphoresAsync
                0x0000000000453e50                cudaMemPrefetchAsync
                0x0000000000454050                cudaLaunchHostFunc
                0x0000000000454240                cudaLaunchCooperativeKernel
                0x0000000000454530                cudaLaunchKernel
                0x0000000000454820                cudaStreamSynchronize
                0x00000000004549d0                cudaStreamAttachMemAsync
                0x0000000000454bd0                cudaStreamAddCallback
                0x0000000000454dd0                cudaStreamWaitEvent
                0x0000000000454fc0                cudaEventRecord
                0x0000000000455190                cudaStreamQuery
                0x0000000000455340                cudaMemset3DAsync
                0x0000000000455650                cudaMemset2DAsync
                0x0000000000455890                cudaStreamIsCapturing
                0x0000000000455a60                cudaStreamEndCapture
                0x0000000000455c30                cudaStreamDestroy
                0x0000000000455de0                cudaStreamQuery_ptsz
                0x0000000000455f90                cudaStreamSynchronize_ptsz
                0x0000000000456140                cudaStreamAddCallback_ptsz
                0x0000000000456340                cudaStreamWaitEvent_ptsz
                0x0000000000456530                cudaLaunchKernel_ptsz
                0x0000000000456820                cudaWaitExternalSemaphoresAsync_ptsz
                0x0000000000456a20                cudaSignalExternalSemaphoresAsync_ptsz
                0x0000000000456c20                cudaEventRecord_ptsz
                0x0000000000456df0                cudaStreamIsCapturing_ptsz
                0x0000000000456fc0                cudaStreamEndCapture_ptsz
                0x0000000000457190                cudaStreamBeginCapture_ptsz
                0x0000000000457340                cudaStreamAttachMemAsync_ptsz
                0x0000000000457540                cudaMemsetAsync
                0x0000000000457740                cudaMemcpy3DPeerAsync
                0x0000000000457910                cudaMemcpy3DAsync
                0x0000000000457ae0                cudaMemcpy2DFromArrayAsync
                0x0000000000457db0                cudaMemcpyFromArrayAsync
                0x0000000000458020                cudaMemcpy2DToArrayAsync
                0x00000000004582f0                cudaMemcpyToArrayAsync
                0x0000000000458560                cudaMemcpy2DAsync
                0x0000000000458800                cudaMemcpyFromSymbolAsync
                0x0000000000458a40                cudaMemcpyToSymbolAsync
                0x0000000000458c80                cudaMemcpyAsync
                0x0000000000458ea0                cudaGraphLaunch_ptsz
                0x0000000000459070                cudaGraphicsUnmapResources
                0x0000000000459260                cudaGraphicsMapResources
                0x0000000000459450                cudaMemPrefetchAsync_ptsz
                0x0000000000459650                cudaMemset3DAsync_ptsz
                0x0000000000459960                cudaMemset2DAsync_ptsz
                0x0000000000459ba0                cudaMemsetAsync_ptsz
                0x0000000000459da0                cudaMemcpyFromSymbolAsync_ptsz
                0x0000000000459fe0                cudaMemcpyToSymbolAsync_ptsz
                0x000000000045a220                cudaMemcpy2DFromArrayAsync_ptsz
                0x000000000045a4f0                cudaMemcpy2DToArrayAsync_ptsz
                0x000000000045a7c0                cudaMemcpy2DAsync_ptsz
                0x000000000045aa60                cudaMemcpyFromArrayAsync_ptsz
                0x000000000045acd0                cudaMemcpyToArrayAsync_ptsz
                0x000000000045af40                cudaMemcpyPeerAsync
                0x000000000045b180                cudaMemcpyAsync_ptsz
                0x000000000045b3a0                cudaMemcpy3DPeerAsync_ptsz
                0x000000000045b570                cudaMemcpy3DAsync_ptsz
                0x000000000045b740                cudaConfigureCall
                0x000000000045b990                cudaLaunchHostFunc_ptsz
                0x000000000045bba0                cudaProfilerInitialize
                0x000000000045bd80                cudaProfilerStop
                0x000000000045bf00                cudaProfilerStart
                0x000000000045c0a0                cudaGraphicsGLRegisterBuffer
                0x000000000045c280                cudaGraphicsGLRegisterImage
                0x000000000045c480                cudaGLGetDevices
                0x000000000045c680                cudaGLMapBufferObjectAsync
                0x000000000045c870                cudaGLSetBufferObjectMapFlags
                0x000000000045ca30                cudaGLUnregisterBufferObject
                0x000000000045cbc0                cudaGLUnmapBufferObject
                0x000000000045cd50                cudaGLMapBufferObject
                0x000000000045cf10                cudaGLRegisterBufferObject
                0x000000000045d0a0                cudaGLSetGLDevice
                0x000000000045d230                cudaGLUnmapBufferObjectAsync
                0x000000000045d420                cudaEventCreateFromEGLSync
                0x000000000045d600                cudaEGLStreamConsumerConnectWithFlags
                0x000000000045d7e0                cudaEGLStreamConsumerConnect
                0x000000000045d9a0                cudaGraphicsEGLRegisterImage
                0x000000000045db80                cudaGraphicsResourceGetMappedEglFrame
                0x000000000045dd80                cudaEGLStreamProducerReturnFrame
                0x000000000045df60                cudaEGLStreamProducerPresentFrame
                0x000000000045e190                cudaEGLStreamProducerDisconnect
                0x000000000045e330                cudaEGLStreamProducerConnect
                0x000000000045e530                cudaEGLStreamConsumerReleaseFrame
                0x000000000045e710                cudaEGLStreamConsumerAcquireFrame
                0x000000000045e910                cudaEGLStreamConsumerDisconnect
                0x000000000045ead0                cudaVDPAUGetDevice
                0x000000000045ecb0                cudaGraphicsVDPAURegisterOutputSurface
                0x000000000045ee90                cudaGraphicsVDPAURegisterVideoSurface
                0x000000000045f070                cudaVDPAUSetVDPAUDevice
                0x000000000045f250                cudart::cuosEventPoll(cudart::cuosEvent*, unsigned int*)
                0x000000000045f260                cudart::cuosEventGetOsPtr(cudart::cuosEvent*, unsigned int, unsigned int)
                0x000000000045f270                cudart::cuosServerSocketGetDataArrivedEvent(cudart::CUOSserverSocket*, cudart::cuosEvent*)
                0x000000000045f290                cudart::cuosSocketGetDataArrivedEvent(cudart::CUOSsocket*, cudart::cuosEvent*)
                0x000000000045f2b0                cudart::cuosPipeGetDataArrivedEvent(cudart::CUOSpipe_st*, cudart::cuosEvent*)
                0x000000000045f2d0                cudart::cuosProcessorMaskSize()
                0x000000000045f2e0                cudart::cuosNumaMovePages(unsigned long, void**, int const*, int*)
                0x000000000045f330                cudart::cuosNumaGetNodeIdForProcessor(unsigned int)
                0x000000000045f360                cudart::cuosNumaGetAllowedNodeMask()
                0x000000000045f390                cudart::cuosNumaGetNumPossibleNodes()
                0x000000000045f720                cudart::cuosGetProcessorCount()
                0x000000000045f740                cudart::cuosGetPageSize()
                0x000000000045f760                cudart::cuosGetLinuxNamespaceInode(char const*, int const*, long long*)
                0x000000000045f880                cudart::cuosGetCurrentProcessExecPath(char**)
                0x000000000045f8e0                cudart::cuosEventDestroy(cudart::cuosEvent*)
                0x000000000045f940                cudart::cuosSocketClose(cudart::CUOSsocket*)
                0x000000000045f960                cudart::cuosServerSocketClose(cudart::CUOSserverSocket*)
                0x000000000045f980                cudart::cuosSocketCreateConnectedPair(cudart::CUOSsocket*, cudart::CUOSsocket*)
                0x000000000045fb10                cudart::cuosIpcDestroy(char*)
                0x000000000045fb30                cudart::cuosSocketOpenAsServer(void const*, unsigned long, cudart::CUOSserverSocket*)
                0x000000000045fc10                cudart::cuosLinuxKernelVersion(int*, int*, int*)
                0x000000000045fcb0                cudart::cuosSemaphoreSignal(sem_t*)
                0x000000000045fcd0                cudart::cuosSemaphoreWait(sem_t*, unsigned int)
                0x000000000045fdf0                cudart::cuosSemaphoreDestroy(sem_t*)
                0x000000000045fe10                cudart::cuosSemaphoreCreate(sem_t*, int)
                0x000000000045fe30                cudart::cuosEventIsSafeToSignal(cudart::cuosEvent*)
                0x000000000045fe80                cudart::cuosEventCreateWithFlags(cudart::cuosEvent*, unsigned int)
                0x000000000045ff40                cudart::cuosEventIpcCreateWithFlags(cudart::cuosEvent*, char*, cudart::cuosEventMode_t, unsigned int)
                0x0000000000460000                cudart::cuosIpcCreate(char*)
                0x0000000000460020                cudart::cuosIpcMakeName(char*, char const*, unsigned long)
                0x00000000004600c0                cudart::cuosGetUserDataNVPath(char*, unsigned long)
                0x0000000000460250                cudart::cuosInterlockedOr64(unsigned long long volatile*, unsigned long long)
                0x00000000004602f0                cudart::cuosInterlockedOr(unsigned int volatile*, unsigned int)
                0x0000000000460360                cudart::cuosInterlockedAnd64(unsigned long long volatile*, unsigned long long)
                0x0000000000460400                cudart::cuosInterlockedAnd(unsigned int volatile*, unsigned int)
                0x0000000000460470                cudart::cuosInterlockedDecrement64(unsigned long long volatile*)
                0x0000000000460490                cudart::cuosInterlockedDecrement(unsigned int volatile*)
                0x00000000004604a0                cudart::cuosInterlockedIncrement64(unsigned long long volatile*)
                0x00000000004604b0                cudart::cuosInterlockedIncrement(unsigned int volatile*)
                0x00000000004604c0                cudart::cuosInterlockedExchange(unsigned int volatile*, unsigned int)
                0x00000000004604d0                cudart::cuosInterlockedCompareExchange64(unsigned long long volatile*, unsigned long long, unsigned long long)
                0x00000000004604e0                cudart::cuosInterlockedCompareExchangePointer(void* volatile*, void*, void*)
                0x00000000004604f0                cudart::cuosInterlockedCompareExchange(unsigned int volatile*, unsigned int, unsigned int)
                0x0000000000460500                cudart::cuosGetProcCoreCount()
                0x0000000000460510                cudart::cuosFreeSwapMemory()
                0x0000000000460530                cudart::cuosTotalSwapMemory()
                0x0000000000460550                cudart::cuosFreePhysicalMemory()
                0x0000000000460570                cudart::cuosTotalPhysicalMemory()
                0x0000000000460590                cudart::cuosGetCpuTime()
                0x00000000004605c0                cudart::cuosGetTimer(cudart::cuostimer*)
                0x0000000000460620                cudart::cuosResetTimer(cudart::cuostimer*)
                0x0000000000460670                cudart::cuosGetCurrentProcessor()
                0x00000000004606a0                cudart::cuosSetThreadAffinity(cudart::CUOSthread_st*, unsigned long const*)
                0x0000000000460710                cudart::cuosGetThreadAffinity(cudart::CUOSthread_st*, unsigned long*)
                0x0000000000460770                cudart::cuosVirtualFindFreeVaInRange(unsigned long, void*, void*, unsigned long)
                0x0000000000460960                cudart::cuosSocketRecv(cudart::CUOSsocket*, cudart::CUOSsocketMsg*)
                0x0000000000460db0                cudart::cuosSocketRecvCred(cudart::CUOSsocket*, int*, unsigned int*, unsigned int*)
                0x0000000000460fc0                cudart::cuosSocketRecvFd(cudart::CUOSsocket*, int*)
                0x0000000000461170                cudart::cuosSocketRead(cudart::CUOSsocket*, void*, unsigned long)
                0x0000000000461300                cudart::cuosSocketSend(cudart::CUOSsocket*, cudart::CUOSsocketMsg*)
                0x00000000004614d0                cudart::cuosSocketSendCred(cudart::CUOSsocket*, int*, unsigned int*, unsigned int*)
                0x00000000004615f0                cudart::cuosSocketSendFd(cudart::CUOSsocket*, int)
                0x0000000000461690                cudart::cuosSocketWrite(cudart::CUOSsocket*, void const*, unsigned long)
                0x00000000004617f0                cudart::cuosEventClear(cudart::cuosEvent*)
                0x0000000000461880                cudart::cuosEventSignal(cudart::cuosEvent*)
                0x0000000000461e70                cudart::cuosInit()
                0x00000000004623d0                cudart::cuosNumaSetThreadMemPolicy(int, unsigned long const*)
                0x0000000000462430                cudart::cuosNumaGetThreadMemPolicy(int*, unsigned long*)
                0x00000000004624a0                cudart::cuosSocketAcceptClient(cudart::CUOSserverSocket*, cudart::CUOSsocket*)
                0x00000000004625f0                cudart::cuosEventWaitMultiple(cudart::cuosEvent**, int, int*, unsigned int, unsigned int)
                0x0000000000462fe0                cudart::cuosEventIpcCreate(cudart::cuosEvent*, char*, cudart::cuosEventMode_t)
                0x0000000000463070                cudart::cuosSocketOpenAsClient(void const*, unsigned long, cudart::CUOSsocket*)
                0x00000000004632e0                cudart::cuosEventCreate(cudart::cuosEvent*)
                0x0000000000463370                cudart::cuosThreadIdEqual(unsigned long, unsigned long)
                0x0000000000463380                cudart::cuosShmBaseAddress(cudart::cuosShmInfo_st const*)
                0x0000000000463390                cudart::cuosShmSize(cudart::cuosShmInfo_st const*)
                0x00000000004633a0                cudart::cuosMemoryStartTeardown()
                0x00000000004633b0                cudart::cuosMemoryRetain()
                0x00000000004633c0                cudart::cuosMemoryRelease()
                0x00000000004633d0                cudart::cuosSetThreadName(cudart::CUOSthread_st*, char const*)
                0x00000000004633e0                cudart::cuosFflush_internal(_IO_FILE*)
                0x00000000004633f0                cudart::cuosFtell(_IO_FILE*, unsigned long long*)
                0x0000000000463430                cudart::cuosFseek(_IO_FILE*, unsigned long long, cudart::cuosSeekEnum)
                0x0000000000463490                cudart::cuosFgetc(_IO_FILE*, char*)
                0x00000000004634f0                cudart::cuosFread(_IO_FILE*, void*, unsigned long, unsigned long*)
                0x0000000000463560                cudart::cuosFwrite(_IO_FILE*, void const*, unsigned long)
                0x0000000000463590                cudart::cuosFclose(_IO_FILE*)
                0x00000000004635a0                cudart::cuosFopen(char const*, unsigned long, _IO_FILE**)
                0x0000000000463600                cudart::cuosGetHostname(char*, unsigned long)
                0x0000000000463650                cudart::cuosRealloc(void*, unsigned long)
                0x0000000000463660                cudart::cuosCalloc(unsigned long, unsigned long)
                0x0000000000463670                cudart::cuosFree(void*)
                0x0000000000463680                cudart::cuosMalloc(unsigned long)
                0x0000000000463690                cudart::cuosGetRandomBytes(void*, unsigned long)
                0x0000000000463760                cudart::cuosPipeRead(cudart::CUOSpipe_st*, void*, unsigned long)
                0x00000000004637c0                cudart::cuosPipeClose(cudart::CUOSpipe_st*)
                0x0000000000463860                cudart::cuosCPUID(int*, int)
                0x0000000000463890                cudart::cuosPipeGetWriteStream(cudart::CUOSpipe_st*)
                0x00000000004638c0                cudart::cuosPipeGetReadStream(cudart::CUOSpipe_st*)
                0x00000000004638f0                cudart::cuosPipeWrite(cudart::CUOSpipe_st*, void const*, unsigned long)
                0x0000000000463940                cudart::cuosPipeOpenAsServer(char const*, void*, cudart::CUOSpipe_st*)
                0x0000000000463a20                cudart::cuosShmIsOwner(cudart::cuosShmInfoEx_st*, int*)
                0x0000000000463a80                cudart::cuosShmUnmap(void*)
                0x0000000000463aa0                cudart::cuosShmMap(void*, unsigned long)
                0x0000000000463ad0                cudart::cuosShmDestroy(void*)
                0x0000000000463af0                cudart::cuosShmCreate(char const*, unsigned long)
                0x0000000000463b40                cudart::cuosUnlockFile(_IO_FILE*)
                0x0000000000463d80                cudart::cuosWriteLockFile(_IO_FILE*, unsigned int)
                0x0000000000463d90                cudart::cuosReadLockFile(_IO_FILE*, unsigned int)
                0x0000000000463da0                cudart::cuosGetFileSize(char const*)
                0x0000000000463dd0                cudart::cuosGetcwd(char*, unsigned long)
                0x0000000000463df0                cudart::cuosRmdirRecursive(char const*)
                0x0000000000463e30                cudart::cuosRm(char const*)
                0x0000000000463e50                cudart::cuosRmdir(char const*)
                0x0000000000463e70                cudart::cuosMkdir(char const*)
                0x0000000000463ea0                cudart::cuosGetCurrentThreadId()
                0x0000000000463eb0                cudart::cuosHasThreadExited(cudart::CUOSthread_st*)
                0x0000000000463ed0                cudart::cuosThreadDetach(cudart::CUOSthread_st*)
                0x0000000000463f10                cudart::cuosThreadCreateWithName(cudart::CUOSthread_st**, int (*)(void*), void*, char const*)
                0x0000000000463fe0                cudart::cuosThreadCreate(cudart::CUOSthread_st**, int (*)(void*), void*)
                0x0000000000463ff0                cudart::cuosThreadYieldHeavy()
                0x0000000000464000                cudart::cuosThreadYield()
                0x0000000000464010                cudart::cuosProcessHasExited(int)
                0x0000000000464050                cudart::cuosProcessId()
                0x0000000000464060                cudart::cuosCondDestroy(pthread_cond_t*)
                0x0000000000464080                cudart::cuosCondBroadcast(pthread_cond_t*)
                0x00000000004640a0                cudart::cuosCondSignal(pthread_cond_t*)
                0x00000000004640c0                cudart::cuosCondWait(pthread_cond_t*, pthread_mutex_t*, unsigned int)
                0x00000000004641d0                cudart::cuosCondCreateWithSharedFlag(pthread_cond_t*, int)
                0x0000000000464230                cudart::cuosOnce(int*, void (*)())
                0x0000000000464250                cudart::cuosDestroyRWLockEx(void**)
                0x0000000000464260                cudart::cuosReleaseReaderLock(void**)
                0x0000000000464270                cudart::cuosTryAcquireWriterLock(void**)
                0x00000000004642a0                cudart::cuosTryAcquireReaderLock(void**)
                0x00000000004642d0                cudart::cuosAcquireWriterLock(void**)
                0x00000000004642e0                cudart::cuosAcquireReaderLock(void**)
                0x00000000004642f0                cudart::cuosInitRWLockEx(void**, void*, unsigned long)
                0x0000000000464360                cudart::cuosLeaveCriticalSection(pthread_mutex_t*)
                0x0000000000464370                cudart::cuosTryEnterCriticalSection(pthread_mutex_t*)
                0x00000000004643a0                cudart::cuosEnterCriticalSection(pthread_mutex_t*)
                0x00000000004643b0                cudart::cuosDeleteCriticalSection(pthread_mutex_t*)
                0x00000000004643c0                cudart::cuosInitializeCriticalSectionWithSharedFlag(pthread_mutex_t*, int)
                0x0000000000464450                cudart::cuosInitializeCriticalSectionShared(pthread_mutex_t*)
                0x0000000000464460                cudart::cuosInitializeCriticalSection(pthread_mutex_t*)
                0x0000000000464470                cudart::cuosSleep(unsigned int)
                0x0000000000464500                cudart::cuosTlsSetValue(unsigned int, void*)
                0x0000000000464520                cudart::cuosTlsGetValue(unsigned int)
                0x0000000000464530                cudart::cuosTlsFree(unsigned int)
                0x0000000000464540                cudart::cuosTlsAlloc(void (*)(void*))
                0x0000000000464570                cudart::cuosKernelIs64Bit()
                0x0000000000464660                cudart::cuosGetProcAddress(void*, char const*)
                0x0000000000464670                cudart::cuosFreeLibrary(void*)
                0x0000000000464690                cudart::cuosLoadLibrary(char const*)
                0x00000000004646b0                cudart::cuosMadvise(void*, unsigned long, unsigned int)
                0x00000000004646e0                cudart::cuosVirtualProtect(void*, unsigned long, unsigned int)
                0x0000000000464730                cudart::cuosVirtualFree(void*, unsigned long, unsigned int)
                0x0000000000464760                cudart::cuosGetEnv(char const*, char*, unsigned long)
                0x00000000004647c0                cudart::cuosSetEnv(char const*, char const*)
                0x00000000004647d0                cudart::cuosGetLocalTime(cudart::cuosLocalTime_s*)
                0x0000000000464870                cudart::cuosPosixInit()
                0x0000000000464920                cudart::cuosPipeCreatePair(cudart::CUOSpipe_st*, cudart::CUOSpipe_st*)
                0x0000000000464b00                cudart::cuosThreadIsCurrent(cudart::CUOSthread_st*)
                0x0000000000464b20                cudart::cuosReleaseWriterLock(void**)
                0x0000000000464b30                cudart::cuosVirtualAllocInRange(void*, unsigned long, unsigned int, unsigned int, void*, void*, unsigned long)
                0x0000000000464c20                cudart::cuosShmOpen(char const*)
                0x0000000000464ca0                cudart::cuosDestroyRWLock(void**)
                0x0000000000464cc0                cudart::cuosLockFile(_IO_FILE*, unsigned int)
                0x0000000000464ce0                cudart::cuosLoadLibraryUnsafe(char const*)
                0x0000000000464d00                cudart::cuosInitRWLock(void**)
                0x0000000000464d90                cudart::cuosThreadJoin(cudart::CUOSthread_st*, int*)
                0x0000000000464e50                cudart::cuosPipeAcceptClient(cudart::CUOSpipe_st*, cudart::CUOSpipe_st*)
                0x0000000000465050                cudart::cuosPipeOpenAsClient(char const*, char const*, cudart::CUOSpipe_st*)
                0x0000000000465480                cudart::cuosCondCreateShared(pthread_cond_t*)
                0x00000000004654e0                cudart::cuosCondCreate(pthread_cond_t*)
                0x0000000000465540                cudart::cuosShmCloseEx(cudart::cuosShmInfoEx_st*, unsigned int, unsigned int)
                0x00000000004655e0                cudart::cuosShmOpenNamedEx(void*, char const*, unsigned long, cudart::cuosShmInfoEx_st**)
                0x0000000000465750                cudart::cuosShmOpenEx(void*, cudart::cuosShmKey_st*, unsigned long, cudart::cuosShmInfoEx_st**)
                0x0000000000465810                cudart::cuosShmCreateNamedEx(void*, char const*, unsigned long, cudart::cuosShmInfoEx_st**)
                0x0000000000465950                cudart::cuosShmCreateEx(void*, cudart::cuosShmKey_st*, unsigned long, cudart::cuosShmInfoEx_st**)
                0x0000000000465a30                cudart::cuosVirtualReserveInRange(unsigned long, void*, void*, unsigned long)
                0x0000000000465d50                cudart::cuosVirtualAlloc(void*, unsigned long, unsigned int, unsigned int)
                0x0000000000465e30                cudart::cuosStrdup(char const*)
                0x0000000000465ea0                cudart::cuosSprintfMalloc(char const*, ...)
 *fill*         0x0000000000465fd8        0x8 
 .text._ZN6cudart3setIPNS_12globalModuleEE8get_sizeEjPm
                0x0000000000465fe0       0x1a /usr/local/depot/cuda-10.0/bin/..//lib64/libcudart_static.a(libcudart_static.a.o)
                0x0000000000465fe0                cudart::set<cudart::globalModule*>::get_size(unsigned int, unsigned long*)
 *fill*         0x0000000000465ffa        0x6 
 .text._ZN6cudart3setIPKvE8get_sizeEjPm
                0x0000000000466000       0x1a /usr/local/depot/cuda-10.0/bin/..//lib64/libcudart_static.a(libcudart_static.a.o)
                0x0000000000466000                cudart::set<void const*>::get_size(unsigned int, unsigned long*)
 *fill*         0x000000000046601a        0x6 
 .text._ZN6cudart3setIPK16textureReferenceE8get_sizeEjPm
                0x0000000000466020       0x1a /usr/local/depot/cuda-10.0/bin/..//lib64/libcudart_static.a(libcudart_static.a.o)
                0x0000000000466020                cudart::set<textureReference const*>::get_size(unsigned int, unsigned long*)
 *fill*         0x000000000046603a        0x6 
 .text._ZN6cudart3setIPK16surfaceReferenceE8get_sizeEjPm
                0x0000000000466040       0x1a /usr/local/depot/cuda-10.0/bin/..//lib64/libcudart_static.a(libcudart_static.a.o)
                0x0000000000466040                cudart::set<surfaceReference const*>::get_size(unsigned int, unsigned long*)
 *fill*         0x000000000046605a        0x6 
 .text._ZN6cudart3setIPNS_6moduleEE8get_sizeEjPm
                0x0000000000466060       0x1a /usr/local/depot/cuda-10.0/bin/..//lib64/libcudart_static.a(libcudart_static.a.o)
                0x0000000000466060                cudart::set<cudart::module*>::get_size(unsigned int, unsigned long*)
 *fill*         0x000000000046607a        0x6 
 .text._ZN6cudart3setINS_3mapIPNS_12globalModuleEPNS_6moduleEE5entryEE8get_sizeEjPm
                0x0000000000466080       0x1a /usr/local/depot/cuda-10.0/bin/..//lib64/libcudart_static.a(libcudart_static.a.o)
                0x0000000000466080                cudart::set<cudart::map<cudart::globalModule*, cudart::module*>::entry>::get_size(unsigned int, unsigned long*)
 *fill*         0x000000000046609a        0x6 
 .text._ZN6cudart3setINS_3mapIPKvPNS_17cudaEntryFunctionEE5entryEE8get_sizeEjPm
                0x00000000004660a0       0x1a /usr/local/depot/cuda-10.0/bin/..//lib64/libcudart_static.a(libcudart_static.a.o)
                0x00000000004660a0                cudart::set<cudart::map<void const*, cudart::cudaEntryFunction*>::entry>::get_size(unsigned int, unsigned long*)
 *fill*         0x00000000004660ba        0x6 
 .text._ZN6cudart3setINS_3mapIPKvPNS_12cudaVariableEE5entryEE8get_sizeEjPm
                0x00000000004660c0       0x1a /usr/local/depot/cuda-10.0/bin/..//lib64/libcudart_static.a(libcudart_static.a.o)
                0x00000000004660c0                cudart::set<cudart::map<void const*, cudart::cudaVariable*>::entry>::get_size(unsigned int, unsigned long*)
 *fill*         0x00000000004660da        0x6 
 .text._ZN6cudart3setINS_3mapIPK16textureReferencePNS_11cudaTextureEE5entryEE8get_sizeEjPm
                0x00000000004660e0       0x1a /usr/local/depot/cuda-10.0/bin/..//lib64/libcudart_static.a(libcudart_static.a.o)
                0x00000000004660e0                cudart::set<cudart::map<textureReference const*, cudart::cudaTexture*>::entry>::get_size(unsigned int, unsigned long*)
 *fill*         0x00000000004660fa        0x6 
 .text._ZN6cudart3setINS_3mapIPK16surfaceReferencePNS_11cudaSurfaceEE5entryEE8get_sizeEjPm
                0x0000000000466100       0x1a /usr/local/depot/cuda-10.0/bin/..//lib64/libcudart_static.a(libcudart_static.a.o)
                0x0000000000466100                cudart::set<cudart::map<surfaceReference const*, cudart::cudaSurface*>::entry>::get_size(unsigned int, unsigned long*)
 *fill*         0x000000000046611a        0x6 
 .text._ZN6cudart3setIPNS_12contextStateEE8get_sizeEjPm
                0x0000000000466120       0x1a /usr/local/depot/cuda-10.0/bin/..//lib64/libcudart_static.a(libcudart_static.a.o)
                0x0000000000466120                cudart::set<cudart::contextState*>::get_size(unsigned int, unsigned long*)
 *fill*         0x000000000046613a        0x6 
 .text          0x0000000000466140       0x72 /usr/lib64/libc_nonshared.a(elf-init.oS)
                0x0000000000466140                __libc_csu_init
                0x00000000004661b0                __libc_csu_fini
 *fill*         0x00000000004661b2        0xe 
 .text          0x00000000004661c0       0x1a /usr/lib64/libc_nonshared.a(atexit.oS)
                0x00000000004661c0                atexit
 *fill*         0x00000000004661da        0x6 
 .text          0x00000000004661e0       0x10 /usr/lib64/libc_nonshared.a(stat.oS)
                0x00000000004661e0                __stat
                0x00000000004661e0                stat
 .text          0x00000000004661f0        0x0 /usr/lib/gcc/x86_64-redhat-linux/4.8.5/crtend.o
 .text          0x00000000004661f0        0x0 /usr/lib/gcc/x86_64-redhat-linux/4.8.5/../../../../lib64/crtn.o
 *(.gnu.warning)

.fini           0x00000000004661f0        0x9
 *(SORT(.fini))
 .fini          0x00000000004661f0        0x4 /usr/lib/gcc/x86_64-redhat-linux/4.8.5/../../../../lib64/crti.o
                0x00000000004661f0                _fini
 .fini          0x00000000004661f4        0x5 /usr/lib/gcc/x86_64-redhat-linux/4.8.5/../../../../lib64/crtn.o
                [!provide]                        PROVIDE (__etext, .)
                [!provide]                        PROVIDE (_etext, .)
                [!provide]                        PROVIDE (etext, .)

.rodata         0x0000000000466200     0x8b2c
 *(.rodata .rodata.* .gnu.linkonce.r.*)
 .rodata.cst4   0x0000000000466200        0x4 /usr/lib/gcc/x86_64-redhat-linux/4.8.5/../../../../lib64/crt1.o
                0x0000000000466200                _IO_stdin_used
 *fill*         0x0000000000466204        0x4 
 .rodata        0x0000000000466208        0x8 /usr/lib/gcc/x86_64-redhat-linux/4.8.5/crtbegin.o
                0x0000000000466208                __dso_handle
 *fill*         0x0000000000466210       0x10 
 .rodata        0x0000000000466220      0x24b aes.o
 *fill*         0x000000000046646b        0x5 
 .rodata        0x0000000000466470       0xe0 test.o
 *fill*         0x0000000000466550       0x10 
 .rodata        0x0000000000466560     0x2d1c /usr/local/depot/cuda-10.0/bin/..//lib64/libcudart_static.a(libcudart_static.a.o)
                0x0000000000466d00                cudart::g_descriptorTableSize
                0x0000000000466d20                cudart::cudartErrorTableEntryCount
                0x0000000000466d24                cudart::cudartErrorDriverMapEntryCount
 .rodata.str1.1
                0x000000000046927c     0x3758 /usr/local/depot/cuda-10.0/bin/..//lib64/libcudart_static.a(libcudart_static.a.o)
                                       0x376f (size before relaxing)
 *fill*         0x000000000046c9d4        0x4 
 .rodata.str1.8
                0x000000000046c9d8     0x1af8 /usr/local/depot/cuda-10.0/bin/..//lib64/libcudart_static.a(libcudart_static.a.o)
                                       0x1af3 (size before relaxing)
 *fill*         0x000000000046e4d0       0x10 
 .rodata._ZZN6cudart3setIPNS_12globalModuleEE8get_sizeEjPmE5SIZES
                0x000000000046e4e0       0xc0 /usr/local/depot/cuda-10.0/bin/..//lib64/libcudart_static.a(libcudart_static.a.o)
                0x000000000046e4e0                cudart::set<cudart::globalModule*>::get_size(unsigned int, unsigned long*)::SIZES
 .rodata._ZZN6cudart3setIPNS_6moduleEE8get_sizeEjPmE5SIZES
                0x000000000046e5a0       0xc0 /usr/local/depot/cuda-10.0/bin/..//lib64/libcudart_static.a(libcudart_static.a.o)
                0x000000000046e5a0                cudart::set<cudart::module*>::get_size(unsigned int, unsigned long*)::SIZES
 .rodata._ZZN6cudart3setINS_3mapIPNS_12globalModuleEPNS_6moduleEE5entryEE8get_sizeEjPmE5SIZES
                0x000000000046e660       0xc0 /usr/local/depot/cuda-10.0/bin/..//lib64/libcudart_static.a(libcudart_static.a.o)
                0x000000000046e660                cudart::set<cudart::map<cudart::globalModule*, cudart::module*>::entry>::get_size(unsigned int, unsigned long*)::SIZES
 .rodata._ZZN6cudart3setINS_3mapIPK16surfaceReferencePNS_11cudaSurfaceEE5entryEE8get_sizeEjPmE5SIZES
                0x000000000046e720       0xc0 /usr/local/depot/cuda-10.0/bin/..//lib64/libcudart_static.a(libcudart_static.a.o)
                0x000000000046e720                cudart::set<cudart::map<surfaceReference const*, cudart::cudaSurface*>::entry>::get_size(unsigned int, unsigned long*)::SIZES
 .rodata._ZZN6cudart3setINS_3mapIPK16textureReferencePNS_11cudaTextureEE5entryEE8get_sizeEjPmE5SIZES
                0x000000000046e7e0       0xc0 /usr/local/depot/cuda-10.0/bin/..//lib64/libcudart_static.a(libcudart_static.a.o)
                0x000000000046e7e0                cudart::set<cudart::map<textureReference const*, cudart::cudaTexture*>::entry>::get_size(unsigned int, unsigned long*)::SIZES
 .rodata._ZZN6cudart3setINS_3mapIPKvPNS_12cudaVariableEE5entryEE8get_sizeEjPmE5SIZES
                0x000000000046e8a0       0xc0 /usr/local/depot/cuda-10.0/bin/..//lib64/libcudart_static.a(libcudart_static.a.o)
                0x000000000046e8a0                cudart::set<cudart::map<void const*, cudart::cudaVariable*>::entry>::get_size(unsigned int, unsigned long*)::SIZES
 .rodata._ZZN6cudart3setINS_3mapIPKvPNS_17cudaEntryFunctionEE5entryEE8get_sizeEjPmE5SIZES
                0x000000000046e960       0xc0 /usr/local/depot/cuda-10.0/bin/..//lib64/libcudart_static.a(libcudart_static.a.o)
                0x000000000046e960                cudart::set<cudart::map<void const*, cudart::cudaEntryFunction*>::entry>::get_size(unsigned int, unsigned long*)::SIZES
 .rodata._ZZN6cudart3setIPK16surfaceReferenceE8get_sizeEjPmE5SIZES
                0x000000000046ea20       0xc0 /usr/local/depot/cuda-10.0/bin/..//lib64/libcudart_static.a(libcudart_static.a.o)
                0x000000000046ea20                cudart::set<surfaceReference const*>::get_size(unsigned int, unsigned long*)::SIZES
 .rodata._ZZN6cudart3setIPK16textureReferenceE8get_sizeEjPmE5SIZES
                0x000000000046eae0       0xc0 /usr/local/depot/cuda-10.0/bin/..//lib64/libcudart_static.a(libcudart_static.a.o)
                0x000000000046eae0                cudart::set<textureReference const*>::get_size(unsigned int, unsigned long*)::SIZES
 .rodata._ZZN6cudart3setIPKvE8get_sizeEjPmE5SIZES
                0x000000000046eba0       0xc0 /usr/local/depot/cuda-10.0/bin/..//lib64/libcudart_static.a(libcudart_static.a.o)
                0x000000000046eba0                cudart::set<void const*>::get_size(unsigned int, unsigned long*)::SIZES
 .rodata._ZZN6cudart3setIPNS_12contextStateEE8get_sizeEjPmE5SIZES
                0x000000000046ec60       0xc0 /usr/local/depot/cuda-10.0/bin/..//lib64/libcudart_static.a(libcudart_static.a.o)
                0x000000000046ec60                cudart::set<cudart::contextState*>::get_size(unsigned int, unsigned long*)::SIZES
 .rodata.cst4   0x000000000046ed20        0xc /usr/local/depot/cuda-10.0/bin/..//lib64/libcudart_static.a(libcudart_static.a.o)
                                         0x18 (size before relaxing)

.nv_fatbin      0x000000000046ed30     0x5530
 .nv_fatbin     0x000000000046ed30      0x2b8 /tmp/tmpxft_00004cf2_00000000-5_test_dlink.o
 .nv_fatbin     0x000000000046efe8     0x4f40 aes.o
 .nv_fatbin     0x0000000000473f28      0x338 test.o

.nvFatBinSegment
                0x0000000000474260       0x48
 .nvFatBinSegment
                0x0000000000474260       0x18 /tmp/tmpxft_00004cf2_00000000-5_test_dlink.o
 .nvFatBinSegment
                0x0000000000474278       0x18 aes.o
 .nvFatBinSegment
                0x0000000000474290       0x18 test.o

__nv_module_id  0x00000000004742a8       0x1e
                [!provide]                        PROVIDE (__start___nv_module_id, .)
 __nv_module_id
                0x00000000004742a8        0xf aes.o
 __nv_module_id
                0x00000000004742b7        0xf test.o
                [!provide]                        PROVIDE (__stop___nv_module_id, .)

.rodata1
 *(.rodata1)

.eh_frame_hdr   0x00000000004742c8     0x2b3c
 *(.eh_frame_hdr)
 .eh_frame_hdr  0x00000000004742c8     0x2b3c /usr/lib/gcc/x86_64-redhat-linux/4.8.5/../../../../lib64/crt1.o
                0x00000000004742c8                __GNU_EH_FRAME_HDR
 *(.eh_frame_entry .eh_frame_entry.*)

.eh_frame       0x0000000000476e08     0xa74c
 *(.eh_frame)
 .eh_frame      0x0000000000476e08       0x30 /usr/lib/gcc/x86_64-redhat-linux/4.8.5/../../../../lib64/crt1.o
 .eh_frame      0x0000000000476e38       0x40 /usr/lib/gcc/x86_64-redhat-linux/4.8.5/../../../../lib64/crt1.o
 .eh_frame      0x0000000000476e78       0x20 /tmp/tmpxft_00004cf2_00000000-5_test_dlink.o
                                         0x38 (size before relaxing)
 .eh_frame      0x0000000000476e98      0x3a0 aes.o
                                        0x378 (size before relaxing)
 .eh_frame      0x0000000000477238      0x160 test.o
                                        0x198 (size before relaxing)
 .eh_frame      0x0000000000477398     0xa128 /usr/local/depot/cuda-10.0/bin/..//lib64/libcudart_static.a(libcudart_static.a.o)
                                       0xa308 (size before relaxing)
 .eh_frame      0x00000000004814c0       0x60 /usr/lib64/libc_nonshared.a(elf-init.oS)
                                         0x78 (size before relaxing)
 .eh_frame      0x0000000000481520       0x18 /usr/lib64/libc_nonshared.a(atexit.oS)
                                         0x30 (size before relaxing)
 .eh_frame      0x0000000000481538       0x18 /usr/lib64/libc_nonshared.a(stat.oS)
                                         0x30 (size before relaxing)
 .eh_frame      0x0000000000481550        0x4 /usr/lib/gcc/x86_64-redhat-linux/4.8.5/crtend.o
 *(.eh_frame.*)

.gcc_except_table
 *(.gcc_except_table .gcc_except_table.*)

.gnu_extab
 *(.gnu_extab*)

.exception_ranges
 *(.exception_ranges .exception_ranges*)
                0x0000000000682530                . = DATA_SEGMENT_ALIGN (0x200000, 0x1000)

.eh_frame
 *(.eh_frame)
 *(.eh_frame.*)

.gnu_extab
 *(.gnu_extab)

.gcc_except_table
 *(.gcc_except_table .gcc_except_table.*)

.exception_ranges
 *(.exception_ranges .exception_ranges*)

.tdata
 *(.tdata .tdata.* .gnu.linkonce.td.*)

.tbss
 *(.tbss .tbss.* .gnu.linkonce.tb.*)
 *(.tcommon)

.preinit_array  0x0000000000682530        0x0
                [!provide]                        PROVIDE (__preinit_array_start, .)
 *(.preinit_array)
                [!provide]                        PROVIDE (__preinit_array_end, .)

.init_array     0x0000000000682530       0xa0
                0x0000000000682530                PROVIDE (__init_array_start, .)
 *(SORT(.init_array.*) SORT(.ctors.*))
 .ctors.65385   0x0000000000682530        0x8 /usr/local/depot/cuda-10.0/bin/..//lib64/libcudart_static.a(libcudart_static.a.o)
 *(.init_array EXCLUDE_FILE(*crtend?.o *crtend.o *crtbegin?.o *crtbegin.o) .ctors)
 .init_array    0x0000000000682538        0x8 /usr/lib/gcc/x86_64-redhat-linux/4.8.5/crtbegin.o
 .init_array    0x0000000000682540        0x8 aes.o
 .init_array    0x0000000000682548        0x8 test.o
 .ctors         0x0000000000682550       0x80 /usr/local/depot/cuda-10.0/bin/..//lib64/libcudart_static.a(libcudart_static.a.o)
                0x00000000006825d0                PROVIDE (__init_array_end, .)

.fini_array     0x00000000006825d0        0x8
                [!provide]                        PROVIDE (__fini_array_start, .)
 *(SORT(.fini_array.*) SORT(.dtors.*))
 *(.fini_array EXCLUDE_FILE(*crtend?.o *crtend.o *crtbegin?.o *crtbegin.o) .dtors)
 .fini_array    0x00000000006825d0        0x8 /usr/lib/gcc/x86_64-redhat-linux/4.8.5/crtbegin.o
                [!provide]                        PROVIDE (__fini_array_end, .)

.ctors
 *crtbegin.o(.ctors)
 *crtbegin?.o(.ctors)
 *(EXCLUDE_FILE(*crtend?.o *crtend.o) .ctors)
 *(SORT(.ctors.*))
 *(.ctors)

.dtors
 *crtbegin.o(.dtors)
 *crtbegin?.o(.dtors)
 *(EXCLUDE_FILE(*crtend?.o *crtend.o) .dtors)
 *(SORT(.dtors.*))
 *(.dtors)

.jcr            0x00000000006825d8        0x8
 *(.jcr)
 .jcr           0x00000000006825d8        0x0 /usr/lib/gcc/x86_64-redhat-linux/4.8.5/crtbegin.o
 .jcr           0x00000000006825d8        0x8 /usr/lib/gcc/x86_64-redhat-linux/4.8.5/crtend.o

.data.rel.ro    0x00000000006825e0     0x27d0
 *(.data.rel.ro.local* .gnu.linkonce.d.rel.ro.local.*)
 .data.rel.ro.local
                0x00000000006825e0     0x2778 /usr/local/depot/cuda-10.0/bin/..//lib64/libcudart_static.a(libcudart_static.a.o)
                0x00000000006825e0                cudart::g_etblToolsRuntimeInstance
                0x0000000000682600                cudart::g_etblToolsRuntimeCallbacks
                0x0000000000682620                cudart::g_descriptorTable
 *(.data.rel.ro .data.rel.ro.* .gnu.linkonce.d.rel.ro.*)
 *fill*         0x0000000000684d58        0x8 
 .data.rel.ro._ZTVN6cudart11threadStateE
                0x0000000000684d60       0x20 /usr/local/depot/cuda-10.0/bin/..//lib64/libcudart_static.a(libcudart_static.a.o)
                0x0000000000684d60                vtable for cudart::threadState
 .data.rel.ro   0x0000000000684d80       0x30 /usr/local/depot/cuda-10.0/bin/..//lib64/libcudart_static.a(libcudart_static.a.o)

.dynamic        0x0000000000684db0      0x230
 *(.dynamic)
 .dynamic       0x0000000000684db0      0x230 /usr/lib/gcc/x86_64-redhat-linux/4.8.5/../../../../lib64/crt1.o
                0x0000000000684db0                _DYNAMIC

.got            0x0000000000684fe0        0x8
 *(.got)
 .got           0x0000000000684fe0        0x8 /usr/lib/gcc/x86_64-redhat-linux/4.8.5/../../../../lib64/crt1.o
 *(.igot)
                0x0000000000684fe8                . = DATA_SEGMENT_RELRO_END (., (SIZEOF (.got.plt) >= 0x18)?0x18:0x0)

.got.plt        0x0000000000685000      0x4d0
 *(.got.plt)
 .got.plt       0x0000000000685000      0x4d0 /usr/lib/gcc/x86_64-redhat-linux/4.8.5/../../../../lib64/crt1.o
                0x0000000000685000                _GLOBAL_OFFSET_TABLE_
 *(.igot.plt)

.data           0x00000000006854e0       0x58
 *(.data .data.* .gnu.linkonce.d.*)
 .data          0x00000000006854e0        0x4 /usr/lib/gcc/x86_64-redhat-linux/4.8.5/../../../../lib64/crt1.o
                0x00000000006854e0                data_start
                0x00000000006854e0                __data_start
 .data          0x00000000006854e4        0x0 /usr/lib/gcc/x86_64-redhat-linux/4.8.5/../../../../lib64/crti.o
 .data          0x00000000006854e4        0x0 /usr/lib/gcc/x86_64-redhat-linux/4.8.5/crtbegin.o
 .data          0x00000000006854e4        0x0 /tmp/tmpxft_00004cf2_00000000-5_test_dlink.o
 .data          0x00000000006854e4        0x0 aes.o
 .data          0x00000000006854e4        0x0 test.o
 *fill*         0x00000000006854e4       0x1c 
 .data          0x0000000000685500       0x28 /usr/local/depot/cuda-10.0/bin/..//lib64/libcudart_static.a(libcudart_static.a.o)
 .data.rel.local
                0x0000000000685528       0x10 /usr/local/depot/cuda-10.0/bin/..//lib64/libcudart_static.a(libcudart_static.a.o)
                0x0000000000685528                cudart::cudartErrorTable
                0x0000000000685530                cudart::cudartErrorDriverMap
 .data          0x0000000000685538        0x0 /usr/lib64/libc_nonshared.a(elf-init.oS)
 .data          0x0000000000685538        0x0 /usr/lib64/libc_nonshared.a(atexit.oS)
 .data          0x0000000000685538        0x0 /usr/lib64/libc_nonshared.a(stat.oS)
 .data          0x0000000000685538        0x0 /usr/lib/gcc/x86_64-redhat-linux/4.8.5/crtend.o
 .data          0x0000000000685538        0x0 /usr/lib/gcc/x86_64-redhat-linux/4.8.5/../../../../lib64/crtn.o

.tm_clone_table
                0x0000000000685538        0x0
 .tm_clone_table
                0x0000000000685538        0x0 /usr/lib/gcc/x86_64-redhat-linux/4.8.5/crtbegin.o
 .tm_clone_table
                0x0000000000685538        0x0 /usr/lib/gcc/x86_64-redhat-linux/4.8.5/crtend.o

.data1
 *(.data1)
                0x0000000000685538                _edata = .
                [!provide]                        PROVIDE (edata, .)
                0x0000000000685538                . = .
                0x0000000000685538                __bss_start = .

.bss            0x0000000000685540     0x1440
 *(.dynbss)
 .dynbss        0x0000000000685540        0x0 /usr/lib/gcc/x86_64-redhat-linux/4.8.5/../../../../lib64/crt1.o
 *(.bss .bss.* .gnu.linkonce.b.*)
 .bss           0x0000000000685540        0x0 /usr/lib/gcc/x86_64-redhat-linux/4.8.5/../../../../lib64/crt1.o
 .bss           0x0000000000685540        0x0 /usr/lib/gcc/x86_64-redhat-linux/4.8.5/../../../../lib64/crti.o
 .bss           0x0000000000685540        0x1 /usr/lib/gcc/x86_64-redhat-linux/4.8.5/crtbegin.o
 *fill*         0x0000000000685541        0x7 
 .bss           0x0000000000685548       0x10 /tmp/tmpxft_00004cf2_00000000-5_test_dlink.o
 .bss           0x0000000000685558       0x30 aes.o
 .bss           0x0000000000685588       0x28 test.o
 *fill*         0x00000000006855b0       0x10 
 .bss           0x00000000006855c0     0x13c0 /usr/local/depot/cuda-10.0/bin/..//lib64/libcudart_static.a(libcudart_static.a.o)
                0x00000000006855c8                cudart::__fun_cuInit
                0x00000000006855d0                cudart::__fun_cuDeviceGet
                0x00000000006855d8                cudart::__fun_cuDeviceGetCount
                0x00000000006855e0                cudart::__fun_cuDeviceGetName
                0x00000000006855e8                cudart::__fun_cuDeviceTotalMem_v2
                0x00000000006855f0                cudart::__fun_cuDeviceGetAttribute
                0x00000000006855f8                cudart::__fun_cuDeviceGetP2PAttribute
                0x0000000000685600                cudart::__fun_cuDriverGetVersion
                0x0000000000685608                cudart::__fun_cuDeviceGetByPCIBusId
                0x0000000000685610                cudart::__fun_cuDeviceGetPCIBusId
                0x0000000000685618                cudart::__fun_cuDeviceGetUuid
                0x0000000000685620                cudart::__fun_cuDevicePrimaryCtxRetain
                0x0000000000685628                cudart::__fun_cuDevicePrimaryCtxRelease
                0x0000000000685630                cudart::__fun_cuDevicePrimaryCtxSetFlags
                0x0000000000685638                cudart::__fun_cuDevicePrimaryCtxGetState
                0x0000000000685640                cudart::__fun_cuDevicePrimaryCtxReset
                0x0000000000685648                cudart::__fun_cuCtxCreate_v2
                0x0000000000685650                cudart::__fun_cuCtxGetFlags
                0x0000000000685658                cudart::__fun_cuCtxSetCurrent
                0x0000000000685660                cudart::__fun_cuCtxGetCurrent
                0x0000000000685668                cudart::__fun_cuCtxDetach
                0x0000000000685670                cudart::__fun_cuCtxGetApiVersion
                0x0000000000685678                cudart::__fun_cuCtxGetDevice
                0x0000000000685680                cudart::__fun_cuCtxGetLimit
                0x0000000000685688                cudart::__fun_cuCtxSetLimit
                0x0000000000685690                cudart::__fun_cuCtxGetCacheConfig
                0x0000000000685698                cudart::__fun_cuCtxSetCacheConfig
                0x00000000006856a0                cudart::__fun_cuCtxGetSharedMemConfig
                0x00000000006856a8                cudart::__fun_cuCtxGetStreamPriorityRange
                0x00000000006856b0                cudart::__fun_cuCtxSetSharedMemConfig
                0x00000000006856b8                cudart::__fun_cuCtxSynchronize
                0x00000000006856c0                cudart::__fun_cuModuleLoad
                0x00000000006856c8                cudart::__fun_cuModuleLoadData
                0x00000000006856d0                cudart::__fun_cuModuleLoadFatBinary
                0x00000000006856d8                cudart::__fun_cuModuleUnload
                0x00000000006856e0                cudart::__fun_cuModuleGetFunction
                0x00000000006856e8                cudart::__fun_cuModuleGetGlobal_v2
                0x00000000006856f0                cudart::__fun_cuModuleGetTexRef
                0x00000000006856f8                cudart::__fun_cuModuleGetSurfRef
                0x0000000000685700                cudart::__fun_cuLinkCreate
                0x0000000000685708                cudart::__fun_cuLinkAddData
                0x0000000000685710                cudart::__fun_cuLinkAddFile
                0x0000000000685718                cudart::__fun_cuLinkComplete
                0x0000000000685720                cudart::__fun_cuLinkDestroy
                0x0000000000685728                cudart::__fun_cuMemGetInfo_v2
                0x0000000000685730                cudart::__fun_cuMemAllocManaged
                0x0000000000685738                cudart::__fun_cuMemAlloc_v2
                0x0000000000685740                cudart::__fun_cuMemAllocPitch_v2
                0x0000000000685748                cudart::__fun_cuMemFree_v2
                0x0000000000685750                cudart::__fun_cuMemGetAddressRange_v2
                0x0000000000685758                cudart::__fun_cuMemFreeHost
                0x0000000000685760                cudart::__fun_cuMemHostAlloc
                0x0000000000685768                cudart::__fun_cuMemHostGetDevicePointer_v2
                0x0000000000685770                cudart::__fun_cuMemHostGetFlags
                0x0000000000685778                cudart::__fun_cuMemHostRegister_v2
                0x0000000000685780                cudart::__fun_cuMemHostUnregister
                0x0000000000685788                cudart::__fun_cuPointerGetAttribute
                0x0000000000685790                cudart::__fun_cuPointerGetAttributes
                0x0000000000685798                cudart::__fun_cuMemcpy
                0x00000000006857a0                cudart::__fun_cuMemcpy_ptds
                0x00000000006857a8                cudart::__fun_cuMemcpyAsync
                0x00000000006857b0                cudart::__fun_cuMemcpyAsync_ptsz
                0x00000000006857b8                cudart::__fun_cuMemcpyPeer
                0x00000000006857c0                cudart::__fun_cuMemcpyPeer_ptds
                0x00000000006857c8                cudart::__fun_cuMemcpyPeerAsync
                0x00000000006857d0                cudart::__fun_cuMemcpyPeerAsync_ptsz
                0x00000000006857d8                cudart::__fun_cuMemcpyHtoD_v2
                0x00000000006857e0                cudart::__fun_cuMemcpyHtoD_v2_ptds
                0x00000000006857e8                cudart::__fun_cuMemcpyHtoDAsync_v2
                0x00000000006857f0                cudart::__fun_cuMemcpyHtoDAsync_v2_ptsz
                0x00000000006857f8                cudart::__fun_cuMemcpyDtoH_v2
                0x0000000000685800                cudart::__fun_cuMemcpyDtoH_v2_ptds
                0x0000000000685808                cudart::__fun_cuMemcpyDtoHAsync_v2
                0x0000000000685810                cudart::__fun_cuMemcpyDtoHAsync_v2_ptsz
                0x0000000000685818                cudart::__fun_cuMemcpyDtoD_v2
                0x0000000000685820                cudart::__fun_cuMemcpyDtoD_v2_ptds
                0x0000000000685828                cudart::__fun_cuMemcpyDtoDAsync_v2
                0x0000000000685830                cudart::__fun_cuMemcpyDtoDAsync_v2_ptsz
                0x0000000000685838                cudart::__fun_cuMemcpy2DUnaligned_v2
                0x0000000000685840                cudart::__fun_cuMemcpy2DUnaligned_v2_ptds
                0x0000000000685848                cudart::__fun_cuMemcpy2DAsync_v2
                0x0000000000685850                cudart::__fun_cuMemcpy2DAsync_v2_ptsz
                0x0000000000685858                cudart::__fun_cuMemcpy3D_v2
                0x0000000000685860                cudart::__fun_cuMemcpy3D_v2_ptds
                0x0000000000685868                cudart::__fun_cuMemcpy3DAsync_v2
                0x0000000000685870                cudart::__fun_cuMemcpy3DAsync_v2_ptsz
                0x0000000000685878                cudart::__fun_cuMemcpy3DPeer
                0x0000000000685880                cudart::__fun_cuMemcpy3DPeer_ptds
                0x0000000000685888                cudart::__fun_cuMemcpy3DPeerAsync
                0x0000000000685890                cudart::__fun_cuMemcpy3DPeerAsync_ptsz
                0x0000000000685898                cudart::__fun_cuMemsetD8_v2
                0x00000000006858a0                cudart::__fun_cuMemsetD8_v2_ptds
                0x00000000006858a8                cudart::__fun_cuMemsetD8Async
                0x00000000006858b0                cudart::__fun_cuMemsetD8Async_ptsz
                0x00000000006858b8                cudart::__fun_cuMemsetD2D8_v2
                0x00000000006858c0                cudart::__fun_cuMemsetD2D8_v2_ptds
                0x00000000006858c8                cudart::__fun_cuMemsetD2D8Async
                0x00000000006858d0                cudart::__fun_cuMemsetD2D8Async_ptsz
                0x00000000006858d8                cudart::__fun_cuFuncSetCacheConfig
                0x00000000006858e0                cudart::__fun_cuFuncSetSharedMemConfig
                0x00000000006858e8                cudart::__fun_cuFuncGetAttribute
                0x00000000006858f0                cudart::__fun_cuFuncSetAttribute
                0x00000000006858f8                cudart::__fun_cuArrayCreate_v2
                0x0000000000685900                cudart::__fun_cuArrayGetDescriptor_v2
                0x0000000000685908                cudart::__fun_cuArray3DCreate_v2
                0x0000000000685910                cudart::__fun_cuArray3DGetDescriptor_v2
                0x0000000000685918                cudart::__fun_cuArrayDestroy
                0x0000000000685920                cudart::__fun_cuMipmappedArrayCreate
                0x0000000000685928                cudart::__fun_cuMipmappedArrayGetLevel
                0x0000000000685930                cudart::__fun_cuMipmappedArrayDestroy
                0x0000000000685938                cudart::__fun_cuTexRefCreate
                0x0000000000685940                cudart::__fun_cuTexRefDestroy
                0x0000000000685948                cudart::__fun_cuTexRefSetArray
                0x0000000000685950                cudart::__fun_cuTexRefSetMipmappedArray
                0x0000000000685958                cudart::__fun_cuTexRefSetAddress_v2
                0x0000000000685960                cudart::__fun_cuTexRefSetAddress2D_v3
                0x0000000000685968                cudart::__fun_cuTexRefSetFormat
                0x0000000000685970                cudart::__fun_cuTexRefSetAddressMode
                0x0000000000685978                cudart::__fun_cuTexRefSetFilterMode
                0x0000000000685980                cudart::__fun_cuTexRefSetMipmapFilterMode
                0x0000000000685988                cudart::__fun_cuTexRefSetMipmapLevelBias
                0x0000000000685990                cudart::__fun_cuTexRefSetMipmapLevelClamp
                0x0000000000685998                cudart::__fun_cuTexRefSetMaxAnisotropy
                0x00000000006859a0                cudart::__fun_cuTexRefSetFlags
                0x00000000006859a8                cudart::__fun_cuTexRefSetBorderColor
                0x00000000006859b0                cudart::__fun_cuTexRefGetBorderColor
                0x00000000006859b8                cudart::__fun_cuSurfRefSetArray
                0x00000000006859c0                cudart::__fun_cuTexObjectCreate
                0x00000000006859c8                cudart::__fun_cuTexObjectDestroy
                0x00000000006859d0                cudart::__fun_cuTexObjectGetResourceDesc
                0x00000000006859d8                cudart::__fun_cuTexObjectGetTextureDesc
                0x00000000006859e0                cudart::__fun_cuTexObjectGetResourceViewDesc
                0x00000000006859e8                cudart::__fun_cuSurfObjectCreate
                0x00000000006859f0                cudart::__fun_cuSurfObjectDestroy
                0x00000000006859f8                cudart::__fun_cuSurfObjectGetResourceDesc
                0x0000000000685a00                cudart::__fun_cuImportExternalMemory
                0x0000000000685a08                cudart::__fun_cuExternalMemoryGetMappedBuffer
                0x0000000000685a10                cudart::__fun_cuExternalMemoryGetMappedMipmappedArray
                0x0000000000685a18                cudart::__fun_cuDestroyExternalMemory
                0x0000000000685a20                cudart::__fun_cuImportExternalSemaphore
                0x0000000000685a28                cudart::__fun_cuSignalExternalSemaphoresAsync
                0x0000000000685a30                cudart::__fun_cuSignalExternalSemaphoresAsync_ptsz
                0x0000000000685a38                cudart::__fun_cuWaitExternalSemaphoresAsync
                0x0000000000685a40                cudart::__fun_cuWaitExternalSemaphoresAsync_ptsz
                0x0000000000685a48                cudart::__fun_cuDestroyExternalSemaphore
                0x0000000000685a50                cudart::__fun_cuLaunchKernel
                0x0000000000685a58                cudart::__fun_cuLaunchKernel_ptsz
                0x0000000000685a60                cudart::__fun_cuLaunchCooperativeKernel
                0x0000000000685a68                cudart::__fun_cuLaunchCooperativeKernel_ptsz
                0x0000000000685a70                cudart::__fun_cuLaunchCooperativeKernelMultiDevice
                0x0000000000685a78                cudart::__fun_cuLaunchHostFunc
                0x0000000000685a80                cudart::__fun_cuLaunchHostFunc_ptsz
                0x0000000000685a88                cudart::__fun_cuEventCreate
                0x0000000000685a90                cudart::__fun_cuEventRecord
                0x0000000000685a98                cudart::__fun_cuEventRecord_ptsz
                0x0000000000685aa0                cudart::__fun_cuEventQuery
                0x0000000000685aa8                cudart::__fun_cuEventSynchronize
                0x0000000000685ab0                cudart::__fun_cuEventDestroy_v2
                0x0000000000685ab8                cudart::__fun_cuEventElapsedTime
                0x0000000000685ac0                cudart::__fun_cuStreamWaitValue32
                0x0000000000685ac8                cudart::__fun_cuStreamWaitValue32_ptsz
                0x0000000000685ad0                cudart::__fun_cuStreamWriteValue32
                0x0000000000685ad8                cudart::__fun_cuStreamWriteValue32_ptsz
                0x0000000000685ae0                cudart::__fun_cuStreamWaitValue64
                0x0000000000685ae8                cudart::__fun_cuStreamWaitValue64_ptsz
                0x0000000000685af0                cudart::__fun_cuStreamWriteValue64
                0x0000000000685af8                cudart::__fun_cuStreamWriteValue64_ptsz
                0x0000000000685b00                cudart::__fun_cuStreamBatchMemOp
                0x0000000000685b08                cudart::__fun_cuStreamBatchMemOp_ptsz
                0x0000000000685b10                cudart::__fun_cuStreamCreate
                0x0000000000685b18                cudart::__fun_cuStreamCreateWithPriority
                0x0000000000685b20                cudart::__fun_cuStreamGetPriority
                0x0000000000685b28                cudart::__fun_cuStreamGetPriority_ptsz
                0x0000000000685b30                cudart::__fun_cuStreamGetFlags
                0x0000000000685b38                cudart::__fun_cuStreamGetCtx
                0x0000000000685b40                cudart::__fun_cuStreamGetFlags_ptsz
                0x0000000000685b48                cudart::__fun_cuStreamDestroy_v2
                0x0000000000685b50                cudart::__fun_cuStreamWaitEvent
                0x0000000000685b58                cudart::__fun_cuStreamWaitEvent_ptsz
                0x0000000000685b60                cudart::__fun_cuStreamAddCallback
                0x0000000000685b68                cudart::__fun_cuStreamAddCallback_ptsz
                0x0000000000685b70                cudart::__fun_cuStreamSynchronize
                0x0000000000685b78                cudart::__fun_cuStreamSynchronize_ptsz
                0x0000000000685b80                cudart::__fun_cuStreamQuery
                0x0000000000685b88                cudart::__fun_cuStreamQuery_ptsz
                0x0000000000685b90                cudart::__fun_cuStreamAttachMemAsync
                0x0000000000685b98                cudart::__fun_cuStreamAttachMemAsync_ptsz
                0x0000000000685ba0                cudart::__fun_cuDeviceCanAccessPeer
                0x0000000000685ba8                cudart::__fun_cuCtxEnablePeerAccess
                0x0000000000685bb0                cudart::__fun_cuCtxDisablePeerAccess
                0x0000000000685bb8                cudart::__fun_cuIpcGetEventHandle
                0x0000000000685bc0                cudart::__fun_cuIpcOpenEventHandle
                0x0000000000685bc8                cudart::__fun_cuIpcGetMemHandle
                0x0000000000685bd0                cudart::__fun_cuIpcOpenMemHandle
                0x0000000000685bd8                cudart::__fun_cuIpcCloseMemHandle
                0x0000000000685be0                cudart::__fun_cuGLCtxCreate_v2
                0x0000000000685be8                cudart::__fun_cuGLInit
                0x0000000000685bf0                cudart::__fun_cuGLGetDevices
                0x0000000000685bf8                cudart::__fun_cuGLRegisterBufferObject
                0x0000000000685c00                cudart::__fun_cuGLMapBufferObject_v2
                0x0000000000685c08                cudart::__fun_cuGLMapBufferObject_v2_ptds
                0x0000000000685c10                cudart::__fun_cuGLMapBufferObjectAsync_v2
                0x0000000000685c18                cudart::__fun_cuGLMapBufferObjectAsync_v2_ptsz
                0x0000000000685c20                cudart::__fun_cuGLUnmapBufferObject
                0x0000000000685c28                cudart::__fun_cuGLUnmapBufferObjectAsync
                0x0000000000685c30                cudart::__fun_cuGLUnregisterBufferObject
                0x0000000000685c38                cudart::__fun_cuGLSetBufferObjectMapFlags
                0x0000000000685c40                cudart::__fun_cuGraphicsGLRegisterImage
                0x0000000000685c48                cudart::__fun_cuGraphicsGLRegisterBuffer
                0x0000000000685c50                cudart::__fun_cuGraphicsEGLRegisterImage
                0x0000000000685c58                cudart::__fun_cuEGLStreamConsumerConnect
                0x0000000000685c60                cudart::__fun_cuEGLStreamConsumerDisconnect
                0x0000000000685c68                cudart::__fun_cuEGLStreamConsumerAcquireFrame
                0x0000000000685c70                cudart::__fun_cuEGLStreamConsumerReleaseFrame
                0x0000000000685c78                cudart::__fun_cuEGLStreamProducerConnect
                0x0000000000685c80                cudart::__fun_cuEGLStreamProducerDisconnect
                0x0000000000685c88                cudart::__fun_cuEGLStreamProducerPresentFrame
                0x0000000000685c90                cudart::__fun_cuEGLStreamProducerReturnFrame
                0x0000000000685c98                cudart::__fun_cuGraphicsResourceGetMappedEglFrame
                0x0000000000685ca0                cudart::__fun_cuEGLStreamConsumerConnectWithFlags
                0x0000000000685ca8                cudart::__fun_cuGraphicsUnregisterResource
                0x0000000000685cb0                cudart::__fun_cuGraphicsMapResources
                0x0000000000685cb8                cudart::__fun_cuGraphicsMapResources_ptsz
                0x0000000000685cc0                cudart::__fun_cuGraphicsUnmapResources
                0x0000000000685cc8                cudart::__fun_cuGraphicsUnmapResources_ptsz
                0x0000000000685cd0                cudart::__fun_cuGraphicsResourceSetMapFlags_v2
                0x0000000000685cd8                cudart::__fun_cuGraphicsSubResourceGetMappedArray
                0x0000000000685ce0                cudart::__fun_cuGraphicsResourceGetMappedMipmappedArray
                0x0000000000685ce8                cudart::__fun_cuGraphicsResourceGetMappedPointer_v2
                0x0000000000685cf0                cudart::__fun_cuProfilerInitialize
                0x0000000000685cf8                cudart::__fun_cuProfilerStart
                0x0000000000685d00                cudart::__fun_cuProfilerStop
                0x0000000000685d08                cudart::__fun_cuVDPAUGetDevice
                0x0000000000685d10                cudart::__fun_cuVDPAUCtxCreate_v2
                0x0000000000685d18                cudart::__fun_cuGraphicsVDPAURegisterVideoSurface
                0x0000000000685d20                cudart::__fun_cuGraphicsVDPAURegisterOutputSurface
                0x0000000000685d28                cudart::__fun_cuGetExportTable
                0x0000000000685d30                cudart::__fun_cuOccupancyMaxActiveBlocksPerMultiprocessorWithFlags
                0x0000000000685d38                cudart::__fun_cuMemAdvise
                0x0000000000685d40                cudart::__fun_cuMemPrefetchAsync
                0x0000000000685d48                cudart::__fun_cuMemPrefetchAsync_ptsz
                0x0000000000685d50                cudart::__fun_cuMemRangeGetAttribute
                0x0000000000685d58                cudart::__fun_cuMemRangeGetAttributes
                0x0000000000685d60                cudart::__fun_cuGetErrorString
                0x0000000000685d68                cudart::__fun_cuGetErrorName
                0x0000000000685d70                cudart::__fun_cuGraphCreate
                0x0000000000685d78                cudart::__fun_cuGraphAddKernelNode
                0x0000000000685d80                cudart::__fun_cuGraphKernelNodeGetParams
                0x0000000000685d88                cudart::__fun_cuGraphKernelNodeSetParams
                0x0000000000685d90                cudart::__fun_cuGraphAddMemcpyNode
                0x0000000000685d98                cudart::__fun_cuGraphMemcpyNodeGetParams
                0x0000000000685da0                cudart::__fun_cuGraphMemcpyNodeSetParams
                0x0000000000685da8                cudart::__fun_cuGraphAddMemsetNode
                0x0000000000685db0                cudart::__fun_cuGraphMemsetNodeGetParams
                0x0000000000685db8                cudart::__fun_cuGraphMemsetNodeSetParams
                0x0000000000685dc0                cudart::__fun_cuGraphAddHostNode
                0x0000000000685dc8                cudart::__fun_cuGraphHostNodeGetParams
                0x0000000000685dd0                cudart::__fun_cuGraphHostNodeSetParams
                0x0000000000685dd8                cudart::__fun_cuGraphAddChildGraphNode
                0x0000000000685de0                cudart::__fun_cuGraphChildGraphNodeGetGraph
                0x0000000000685de8                cudart::__fun_cuGraphAddEmptyNode
                0x0000000000685df0                cudart::__fun_cuGraphClone
                0x0000000000685df8                cudart::__fun_cuGraphNodeFindInClone
                0x0000000000685e00                cudart::__fun_cuGraphNodeGetType
                0x0000000000685e08                cudart::__fun_cuGraphGetNodes
                0x0000000000685e10                cudart::__fun_cuGraphGetRootNodes
                0x0000000000685e18                cudart::__fun_cuGraphGetEdges
                0x0000000000685e20                cudart::__fun_cuGraphNodeGetDependencies
                0x0000000000685e28                cudart::__fun_cuGraphNodeGetDependentNodes
                0x0000000000685e30                cudart::__fun_cuGraphAddDependencies
                0x0000000000685e38                cudart::__fun_cuGraphRemoveDependencies
                0x0000000000685e40                cudart::__fun_cuGraphDestroyNode
                0x0000000000685e48                cudart::__fun_cuGraphInstantiate
                0x0000000000685e50                cudart::__fun_cuGraphLaunch
                0x0000000000685e58                cudart::__fun_cuGraphLaunch_ptsz
                0x0000000000685e60                cudart::__fun_cuGraphExecDestroy
                0x0000000000685e68                cudart::__fun_cuGraphDestroy
                0x0000000000685e70                cudart::__fun_cuStreamBeginCapture
                0x0000000000685e78                cudart::__fun_cuStreamBeginCapture_ptsz
                0x0000000000685e80                cudart::__fun_cuStreamEndCapture
                0x0000000000685e88                cudart::__fun_cuStreamEndCapture_ptsz
                0x0000000000685e90                cudart::__fun_cuStreamIsCapturing
                0x0000000000685e98                cudart::__fun_cuStreamIsCapturing_ptsz
 .bss           0x0000000000686980        0x0 /usr/lib64/libc_nonshared.a(elf-init.oS)
 .bss           0x0000000000686980        0x0 /usr/lib64/libc_nonshared.a(atexit.oS)
 .bss           0x0000000000686980        0x0 /usr/lib64/libc_nonshared.a(stat.oS)
 .bss           0x0000000000686980        0x0 /usr/lib/gcc/x86_64-redhat-linux/4.8.5/crtend.o
 .bss           0x0000000000686980        0x0 /usr/lib/gcc/x86_64-redhat-linux/4.8.5/../../../../lib64/crtn.o
 *(COMMON)
                0x0000000000686980                . = ALIGN ((. != 0x0)?0x8:0x1)

.lbss
 *(.dynlbss)
 *(.lbss .lbss.* .gnu.linkonce.lb.*)
 *(LARGE_COMMON)
                0x0000000000686980                . = ALIGN (0x8)
                0x0000000000686980                . = SEGMENT_START ("ldata-segment", .)

.lrodata
 *(.lrodata .lrodata.* .gnu.linkonce.lr.*)

.ldata          0x0000000000a86980        0x0
 *(.ldata .ldata.* .gnu.linkonce.l.*)
                0x0000000000a86980                . = ALIGN ((. != 0x0)?0x8:0x1)
                0x0000000000a86980                . = ALIGN (0x8)
                0x0000000000a86980                _end = .
                [!provide]                        PROVIDE (end, .)
                0x0000000000a86980                . = DATA_SEGMENT_END (.)

.stab
 *(.stab)

.stabstr
 *(.stabstr)

.stab.excl
 *(.stab.excl)

.stab.exclstr
 *(.stab.exclstr)

.stab.index
 *(.stab.index)

.stab.indexstr
 *(.stab.indexstr)

.comment        0x0000000000000000      0x3f3
 *(.comment)
 .comment       0x0000000000000000       0x2d /usr/lib/gcc/x86_64-redhat-linux/4.8.5/../../../../lib64/crt1.o
                                         0x2e (size before relaxing)
 .comment       0x000000000000002d       0x2e /usr/lib/gcc/x86_64-redhat-linux/4.8.5/crtbegin.o
 .comment       0x000000000000002d       0x2e /tmp/tmpxft_00004cf2_00000000-5_test_dlink.o
 .comment       0x000000000000002d       0x2e aes.o
 .comment       0x000000000000002d       0x2e test.o
 .comment       0x000000000000002d      0x3c6 /usr/local/depot/cuda-10.0/bin/..//lib64/libcudart_static.a(libcudart_static.a.o)
 .comment       0x00000000000003f3       0x2e /usr/lib64/libc_nonshared.a(elf-init.oS)
 .comment       0x00000000000003f3       0x2e /usr/lib64/libc_nonshared.a(atexit.oS)
 .comment       0x00000000000003f3       0x2e /usr/lib64/libc_nonshared.a(stat.oS)
 .comment       0x00000000000003f3       0x2e /usr/lib/gcc/x86_64-redhat-linux/4.8.5/crtend.o

.debug
 *(.debug)

.line
 *(.line)

.debug_srcinfo
 *(.debug_srcinfo)

.debug_sfnames
 *(.debug_sfnames)

.debug_aranges
 *(.debug_aranges)

.debug_pubnames
 *(.debug_pubnames)

.debug_info
 *(.debug_info .gnu.linkonce.wi.*)

.debug_abbrev
 *(.debug_abbrev)

.debug_line
 *(.debug_line .debug_line.* .debug_line_end)

.debug_frame
 *(.debug_frame)

.debug_str
 *(.debug_str)

.debug_loc
 *(.debug_loc)

.debug_macinfo
 *(.debug_macinfo)

.debug_weaknames
 *(.debug_weaknames)

.debug_funcnames
 *(.debug_funcnames)

.debug_typenames
 *(.debug_typenames)

.debug_varnames
 *(.debug_varnames)

.debug_pubtypes
 *(.debug_pubtypes)

.debug_ranges
 *(.debug_ranges)

.debug_macro
 *(.debug_macro)

.gnu.attributes
 *(.gnu.attributes)

/DISCARD/
 *(.note.GNU-stack)
 *(.gnu_debuglink)
 *(.gnu.lto_*)
OUTPUT(test.elf elf64-x86-64)
